Certificate:
    Data:
        Version: 3 (0x2)
        Serial Number: 2 (0x2)
        Signature Algorithm: sha256WithRSAEncryption
        Issuer: C=NL, ST=Gelderland, L=Arnhem, O=OSGP, OU=OSGP, CN=OSGP/emailAddress=address@OSGP.com
        Validity
            Not Before: Apr 28 17:03:51 2015 GMT
            Not After : Apr 27 17:03:51 2018 GMT
        Subject: CN=test-org
        Subject Public Key Info:
            Public Key Algorithm: rsaEncryption
                Public-Key: (2048 bit)
                Modulus:
                    00:ce:0a:9e:24:df:7f:d5:dc:47:54:d4:8e:76:8f:
                    8e:ff:7b:2b:f0:3c:ad:9e:ea:f4:8c:5c:81:0f:cd:
                    07:d2:83:32:18:90:94:7f:97:31:57:85:e0:f1:db:
                    ae:85:f2:56:21:bd:ef:65:fe:36:9d:2a:7e:4d:eb:
                    9d:7a:3e:61:24:fa:df:50:fd:6e:1f:20:0b:ff:9f:
                    84:1c:4c:95:25:a7:ae:22:af:c8:28:b0:2e:bd:60:
                    6d:67:5b:59:68:19:c1:2d:ba:4e:d4:69:8d:ae:03:
                    00:65:99:d1:67:53:ba:37:74:7d:a9:49:0e:30:8f:
                    31:82:2a:63:8a:b8:02:5a:02:ae:37:75:62:61:7e:
                    96:94:13:47:5c:57:0c:04:a1:40:ba:d6:1c:35:3b:
                    46:a7:6e:e7:72:71:72:81:be:1f:e3:05:1e:ac:06:
                    08:ec:be:74:4c:f3:c8:73:4d:46:99:9f:b5:55:d9:
                    f4:d9:fc:ce:15:c9:77:c3:62:74:93:8a:22:e6:a4:
                    80:07:71:f3:45:ad:37:c0:39:13:71:4d:f1:97:05:
                    5d:52:34:47:2b:7d:6f:41:75:1c:7d:a4:fc:27:4f:
                    0e:44:d0:dd:2b:91:66:30:29:27:4f:ad:31:e0:ea:
                    e0:fb:2c:7c:0b:a2:12:c1:87:7e:aa:86:f2:cb:98:
                    7b:bf
                Exponent: 65537 (0x10001)
        X509v3 extensions:
            X509v3 Basic Constraints: 
                CA:FALSE
            X509v3 Key Usage: critical
                Digital Signature, Non Repudiation, Key Encipherment, Data Encipherment
            X509v3 Extended Key Usage: 
                TLS Web Client Authentication
            X509v3 Subject Key Identifier: 
                B6:41:F2:34:AC:D7:18:38:07:1B:6D:F1:58:0E:C4:57:DD:AE:A5:57
    Signature Algorithm: sha256WithRSAEncryption
        25:ec:98:bd:e8:21:70:f1:d1:84:a1:5c:c4:30:e6:76:d6:6a:
        9b:d0:d6:b3:8b:d6:34:a8:7d:b2:d0:a6:55:1e:ef:24:4b:27:
        8d:e8:06:93:a5:da:a7:1d:5e:fa:b0:24:50:72:e7:b9:a4:3e:
        8a:63:e2:0d:9a:0b:c7:8a:67:cc:00:c7:48:d1:84:91:7a:a1:
        05:9f:a3:5c:db:b3:1d:b7:6e:21:8c:f4:6e:67:08:db:cd:f5:
        a8:f0:01:be:8e:2d:e0:1e:37:f8:be:b6:d8:cb:de:8d:44:d2:
        9a:5c:07:99:0a:cc:1a:36:a7:b8:dc:f5:6b:34:d5:5c:9c:6a:
        89:5e:f2:c6:76:1b:15:49:f5:b5:17:ca:0e:5e:47:8e:2e:fa:
        b3:cd:de:17:77:83:9b:02:60:50:89:d7:51:5f:9a:51:71:04:
        7f:85:a0:2a:f3:4c:4f:97:84:5e:17:6c:71:c1:c8:c3:78:ac:
        36:02:65:3d:ee:9c:5b:12:d0:83:be:83:f2:24:ab:97:77:ba:
        ad:b6:f9:ec:6a:ab:d7:f6:db:18:53:0e:05:db:6d:c1:6d:8c:
        6c:fc:e3:ca:3f:3a:66:34:fa:83:7b:83:8e:e6:35:67:84:fd:
        60:d7:30:2d:6c:68:8f:25:91:8d:d6:02:68:a4:6e:af:07:99:
        35:69:5b:70:59:21:3f:97:9d:07:c5:09:b2:80:8a:f5:1e:a9:
        09:34:af:f0:fb:86:8b:fe:61:43:ac:fb:51:5d:e0:27:5e:0a:
        0f:c4:73:d8:a5:36:26:a9:49:4e:96:b7:ce:d4:58:12:07:58:
        17:fc:ff:9a:23:74:25:50:22:3c:b0:f2:48:d0:bf:bc:9e:37:
        8e:fd:de:33:1b:53:e6:76:43:68:3c:e1:2e:f1:7a:64:4e:1d:
        09:b4:85:e5:cb:ed:5d:4a:ce:9f:42:d5:0e:f6:6a:fa:5f:5c:
        b4:24:8b:b3:26:8c:92:ca:fc:1e:e9:5b:ea:a9:1f:2b:fd:36:
        b7:ec:ac:91:89:c6:40:88:83:5f:5a:9e:67:55:f2:45:54:f1:
        19:9e:0d:44:45:57:21:b5:13:05:03:13:4d:f9:0c:c2:30:3a:
        56:f3:12:93:63:5f:20:4f:0a:0c:fa:3f:55:4b:e1:28:99:21:
        c2:ce:71:35:76:0c:5f:cd:f9:07:3e:de:11:ba:1b:81:9c:6a:
        ee:ef:22:91:9e:d7:fe:d5:bf:10:8d:d3:c4:a3:0c:73:cc:16:
        68:fc:6b:b4:dd:aa:d0:12:f4:16:48:78:bc:4d:5a:39:68:79:
        7c:3f:e4:62:24:bc:83:af:9d:2b:68:fd:12:6a:b2:0d:02:18:
        3c:cb:31:7c:55:34:1e:24
-----BEGIN CERTIFICATE-----
MIIEYTCCAkmgAwIBAgIBAjANBgkqhkiG9w0BAQsFADCBgTELMAkGA1UEBhMCTkwx
EzARBgNVBAgTCkdlbGRlcmxhbmQxDzANBgNVBAcTBkFybmhlbTENMAsGA1UEChME
T1NHUDENMAsGA1UECxMET1NHUDENMAsGA1UEAxMET1NHUDEfMB0GCSqGSIb3DQEJ
ARYQYWRkcmVzc0BPU0dQLmNvbTAeFw0xNTA0MjgxNzAzNTFaFw0xODA0MjcxNzAz
NTFaMBMxETAPBgNVBAMTCHRlc3Qtb3JnMIIBIjANBgkqhkiG9w0BAQEFAAOCAQ8A
MIIBCgKCAQEAzgqeJN9/1dxHVNSOdo+O/3sr8Dytnur0jFyBD80H0oMyGJCUf5cx
V4Xg8duuhfJWIb3vZf42nSp+Teudej5hJPrfUP1uHyAL/5+EHEyVJaeuIq/IKLAu
vWBtZ1tZaBnBLbpO1GmNrgMAZZnRZ1O6N3R9qUkOMI8xgipjirgCWgKuN3ViYX6W
lBNHXFcMBKFAutYcNTtGp27ncnFygb4f4wUerAYI7L50TPPIc01GmZ+1Vdn02fzO
Fcl3w2J0k4oi5qSAB3HzRa03wDkTcU3xlwVdUjRHK31vQXUcfaT8J08ORNDdK5Fm
MCknT60x4Org+yx8C6ISwYd+qobyy5h7vwIDAQABo1EwTzAJBgNVHRMEAjAAMA4G
A1UdDwEB/wQEAwIE8DATBgNVHSUEDDAKBggrBgEFBQcDAjAdBgNVHQ4EFgQUtkHy
NKzXGDgHG23xWA7EV92upVcwDQYJKoZIhvcNAQELBQADggIBACXsmL3oIXDx0YSh
XMQw5nbWapvQ1rOL1jSofbLQplUe7yRLJ43oBpOl2qcdXvqwJFBy57mkPopj4g2a
C8eKZ8wAx0jRhJF6oQWfo1zbsx23biGM9G5nCNvN9ajwAb6OLeAeN/i+ttjL3o1E
0ppcB5kKzBo2p7jc9Ws01Vycaole8sZ2GxVJ9bUXyg5eR44u+rPN3hd3g5sCYFCJ
11FfmlFxBH+FoCrzTE+XhF4XbHHByMN4rDYCZT3unFsS0IO+g/Ikq5d3uq22+exq
q9f22xhTDgXbbcFtjGz848o/OmY0+oN7g47mNWeE/WDXMC1saI8lkY3WAmikbq8H
mTVpW3BZIT+XnQfFCbKAivUeqQk0r/D7hov+YUOs+1Fd4CdeCg/Ec9ilNiapSU6W
t87UWBIHWBf8/5ojdCVQIjyw8kjQv7yeN4793jMbU+Z2Q2g84S7xemROHQm0heXL
7V1Kzp9C1Q72avpfXLQki7MmjJLK/B7pW+qpHyv9NrfsrJGJxkCIg19anmdV8kVU
8RmeDURFVyG1EwUDE035DMIwOlbzEpNjXyBPCgz6P1VL4SiZIcLOcTV2DF/N+Qc+
3hG6G4Gcau7vIpGe1/7VvxCN08SjDHPMFmj8a7TdqtAS9BZIeLxNWjloeXw/5GIk
vIOvnSto/RJqsg0CGDzLMXxVNB4k
-----END CERTIFICATE-----
