Certificate:
    Data:
        Version: 3 (0x2)
        Serial Number: 4 (0x4)
    Signature Algorithm: sha256WithRSAEncryption
        Issuer: C=NL, ST=Gelderland, L=Arnhem, O=OSGP, OU=OSGP, CN=OSGP/emailAddress=address@OSGP.com
        Validity
            Not Before: Dec  7 08:04:42 2016 GMT
            Not After : Dec  7 08:04:42 2019 GMT
        Subject: CN=Infostroom
        Subject Public Key Info:
            Public Key Algorithm: rsaEncryption
                Public-Key: (2048 bit)
                Modulus:
                    00:e0:05:12:29:88:ca:5b:71:f6:c7:48:12:88:ef:
                    12:63:3a:14:e9:b3:06:06:81:cc:1a:4b:d4:38:11:
                    bd:74:66:4c:6b:2c:09:87:dc:9f:eb:66:46:b9:ba:
                    3a:2b:91:dc:fd:88:8b:6f:95:ca:44:b6:b6:8d:73:
                    85:d8:c1:6b:70:44:65:4c:c3:9b:9f:aa:d7:e2:dc:
                    1f:1b:33:19:4f:e4:58:16:8d:b1:3d:70:11:ff:4e:
                    5b:63:9e:4b:45:7d:fe:27:c3:88:4b:1c:91:3d:bd:
                    a7:42:93:f6:20:a9:86:a8:e2:3a:a5:a3:24:51:c9:
                    be:4f:8f:d6:eb:31:43:d7:5a:d3:70:8c:c5:ed:bd:
                    2c:2e:07:00:e9:21:ae:75:04:9c:e5:cf:0f:01:22:
                    b0:f0:a2:22:13:5b:50:90:6d:b0:0b:fe:c0:35:9c:
                    f0:68:5f:17:03:1c:04:63:74:06:e4:7c:bd:08:43:
                    2d:1e:ea:61:65:a4:fe:e6:db:ba:e6:c5:79:45:b0:
                    6c:2e:55:a2:5d:ea:56:48:10:95:a0:4f:36:06:bd:
                    8f:ab:d8:63:42:1b:53:9c:9f:55:75:67:89:a8:59:
                    a2:7c:a5:59:10:ec:6a:19:e3:51:25:be:0d:d5:aa:
                    b5:72:97:3d:89:89:83:9c:35:e7:0e:64:d9:8d:e2:
                    73:77
                Exponent: 65537 (0x10001)
        X509v3 extensions:
            X509v3 Basic Constraints: 
                CA:FALSE
            X509v3 Key Usage: critical
                Digital Signature, Non Repudiation, Key Encipherment, Data Encipherment
            X509v3 Extended Key Usage: 
                TLS Web Client Authentication
            X509v3 Subject Key Identifier: 
                AE:1F:68:E4:10:11:81:C1:AD:1E:9F:34:51:D3:9E:61:26:9A:41:FA
    Signature Algorithm: sha256WithRSAEncryption
         39:fa:25:74:a6:a0:58:b4:5c:8c:05:93:c9:86:66:6f:d9:26:
         31:3b:c8:5b:5a:ed:1f:c3:32:81:9e:64:65:92:28:80:20:16:
         4d:bd:90:81:5f:20:5f:2f:ce:9a:17:bb:97:35:10:8a:0b:b7:
         2d:8e:a6:6c:59:b8:e8:a2:f5:75:94:9e:24:8a:f1:0f:d1:5f:
         c5:b4:83:bd:9c:a7:41:66:ff:93:58:c3:fb:82:12:5b:d1:ba:
         cc:db:a9:b8:c4:a0:89:c6:c5:b5:08:71:5b:8b:44:9d:1f:1f:
         8a:72:55:c6:71:33:d3:4e:47:a1:73:14:b6:61:d4:77:71:0a:
         91:74:a5:bb:cb:4e:1a:a2:7d:56:1b:2d:84:90:d0:b4:b8:77:
         51:4a:a0:a3:a3:0b:c3:bc:a7:79:6c:54:a2:8b:24:09:81:36:
         9e:4f:ba:f0:3b:63:96:dd:5a:89:4a:e7:f5:3e:58:bc:9e:30:
         59:2c:0f:c4:66:ed:57:7e:3c:83:7f:38:b6:8e:33:c4:04:d4:
         17:02:95:0a:36:b5:42:37:05:08:29:53:dc:dd:d4:de:df:01:
         2c:d3:5f:49:15:d4:df:7e:20:9e:b8:aa:d4:bf:79:a7:f0:6d:
         24:ec:63:e0:31:d4:ca:02:4f:e2:08:1c:de:9f:a7:c2:49:42:
         1a:4a:e8:c7:b1:28:ec:3b:09:88:14:c1:5f:9d:28:72:73:07:
         28:a7:3a:df:fa:1e:d9:e2:a0:3b:1e:b3:73:39:17:ca:00:b9:
         39:5b:43:15:00:f9:6f:3a:23:98:e1:2c:4f:ca:a1:4e:b9:80:
         ad:3d:bc:d3:dc:6a:90:46:da:f7:9d:c9:be:a5:c1:e9:9c:42:
         58:7a:6a:ac:d8:36:aa:d9:10:66:2d:02:0d:69:d0:f2:18:4a:
         ed:2e:f3:b9:12:b8:88:15:7d:18:2a:9c:1f:5a:be:78:a5:c8:
         0c:69:14:a2:48:4d:fc:66:0b:09:44:9b:4f:21:b7:c8:db:5c:
         a6:23:2a:09:02:bd:f3:59:c9:bb:28:62:af:28:c9:e0:30:dd:
         93:59:79:1a:5d:be:1c:be:e2:9e:ad:93:1a:07:e0:43:be:48:
         23:8b:c6:24:88:e5:4d:1b:b6:71:f0:4d:d1:7b:0d:ba:86:b9:
         60:16:d8:87:8b:25:65:22:fe:5e:8c:08:2b:68:f6:6f:37:9c:
         6f:78:e9:24:fd:f1:ec:9e:51:79:0d:2d:eb:42:c7:be:3a:9b:
         e3:18:ea:75:5a:cf:8e:ed:5b:c3:93:59:54:c1:f9:68:87:17:
         af:02:93:fb:56:2f:02:ac:0e:fe:22:a7:89:bc:8a:af:74:91:
         85:37:45:95:da:6c:4b:65
-----BEGIN CERTIFICATE-----
MIIEYzCCAkugAwIBAgIBBDANBgkqhkiG9w0BAQsFADCBgTELMAkGA1UEBhMCTkwx
EzARBgNVBAgTCkdlbGRlcmxhbmQxDzANBgNVBAcTBkFybmhlbTENMAsGA1UEChME
T1NHUDENMAsGA1UECxMET1NHUDENMAsGA1UEAxMET1NHUDEfMB0GCSqGSIb3DQEJ
ARYQYWRkcmVzc0BPU0dQLmNvbTAeFw0xNjEyMDcwODA0NDJaFw0xOTEyMDcwODA0
NDJaMBUxEzARBgNVBAMMCkluZm9zdHJvb20wggEiMA0GCSqGSIb3DQEBAQUAA4IB
DwAwggEKAoIBAQDgBRIpiMpbcfbHSBKI7xJjOhTpswYGgcwaS9Q4Eb10ZkxrLAmH
3J/rZka5ujorkdz9iItvlcpEtraNc4XYwWtwRGVMw5ufqtfi3B8bMxlP5FgWjbE9
cBH/TltjnktFff4nw4hLHJE9vadCk/YgqYao4jqloyRRyb5Pj9brMUPXWtNwjMXt
vSwuBwDpIa51BJzlzw8BIrDwoiITW1CQbbAL/sA1nPBoXxcDHARjdAbkfL0IQy0e
6mFlpP7m27rmxXlFsGwuVaJd6lZIEJWgTzYGvY+r2GNCG1Ocn1V1Z4moWaJ8pVkQ
7GoZ41Elvg3VqrVylz2JiYOcNecOZNmN4nN3AgMBAAGjUTBPMAkGA1UdEwQCMAAw
DgYDVR0PAQH/BAQDAgTwMBMGA1UdJQQMMAoGCCsGAQUFBwMCMB0GA1UdDgQWBBSu
H2jkEBGBwa0enzRR055hJppB+jANBgkqhkiG9w0BAQsFAAOCAgEAOfoldKagWLRc
jAWTyYZmb9kmMTvIW1rtH8MygZ5kZZIogCAWTb2QgV8gXy/Omhe7lzUQigu3LY6m
bFm46KL1dZSeJIrxD9FfxbSDvZynQWb/k1jD+4ISW9G6zNupuMSgicbFtQhxW4tE
nR8finJVxnEz005HoXMUtmHUd3EKkXSlu8tOGqJ9VhsthJDQtLh3UUqgo6MLw7yn
eWxUooskCYE2nk+68Dtjlt1aiUrn9T5YvJ4wWSwPxGbtV348g384to4zxATUFwKV
Cja1QjcFCClT3N3U3t8BLNNfSRXU334gnriq1L95p/BtJOxj4DHUygJP4ggc3p+n
wklCGkrox7Eo7DsJiBTBX50ocnMHKKc63/oe2eKgOx6zczkXygC5OVtDFQD5bzoj
mOEsT8qhTrmArT2809xqkEba953JvqXB6ZxCWHpqrNg2qtkQZi0CDWnQ8hhK7S7z
uRK4iBV9GCqcH1q+eKXIDGkUokhN/GYLCUSbTyG3yNtcpiMqCQK981nJuyhiryjJ
4DDdk1l5Gl2+HL7inq2TGgfgQ75II4vGJIjlTRu2cfBN0XsNuoa5YBbYh4slZSL+
XowIK2j2bzecb3jpJP3x7J5ReQ0t60LHvjqb4xjqdVrPju1bw5NZVMH5aIcXrwKT
+1YvAqwO/iKnibyKr3SRhTdFldpsS2U=
-----END CERTIFICATE-----
