Certificate:
    Data:
        Version: 3 (0x2)
        Serial Number: 6 (0x6)
    Signature Algorithm: sha256WithRSAEncryption
        Issuer: C=NL, ST=Gelderland, L=Arnhem, O=OSGP, OU=OSGP, CN=OSGP/emailAddress=address@OSGP.com
        Validity
            Not Before: Dec 12 10:57:41 2016 GMT
            Not After : Dec 12 10:57:41 2019 GMT
        Subject: CN=osgp-tst.cloudapp.net
        Subject Public Key Info:
            Public Key Algorithm: rsaEncryption
                Public-Key: (2048 bit)
                Modulus:
                    00:b5:2c:b3:be:76:76:07:ee:23:98:26:01:b5:1e:
                    c8:50:27:d0:c8:d0:5e:2c:fa:1e:98:75:39:80:4c:
                    27:ee:ca:48:52:8a:75:9b:85:e4:d1:73:e1:0e:45:
                    8b:60:f8:65:7c:c6:a0:c6:64:22:44:a0:27:bc:c5:
                    1a:93:7d:7d:36:f1:a1:eb:34:ac:48:05:e2:6a:3b:
                    92:d6:f9:1e:00:0f:84:79:fd:5b:bd:c4:b6:ab:9f:
                    9a:76:f9:b3:ca:1e:2b:b2:41:45:6d:e3:b1:14:bb:
                    f7:8f:69:e1:a1:d0:e9:71:16:02:1e:93:0c:36:92:
                    b0:95:e6:f5:68:ab:2f:01:79:df:b1:71:cc:0b:6c:
                    aa:dd:2d:14:8d:f6:21:da:15:99:0c:39:c9:b5:12:
                    c5:bb:3c:24:99:a0:8f:2a:2f:11:b6:c5:83:2f:2c:
                    a8:88:b0:e9:f5:b3:b5:99:79:c4:8b:c9:7d:65:34:
                    3c:3b:bb:5e:81:08:71:7c:4c:9b:58:81:b5:aa:bf:
                    60:3d:83:55:79:8e:2f:80:3b:5d:38:95:35:f3:6c:
                    8e:d0:73:c9:0e:2d:8d:a4:90:48:68:c4:d1:76:b4:
                    31:c1:d2:67:1c:a5:62:f5:fc:5b:76:1c:95:d6:a4:
                    9c:71:ac:60:db:29:ec:64:c8:a7:56:0d:ad:92:ef:
                    52:83
                Exponent: 65537 (0x10001)
        X509v3 extensions:
            X509v3 Basic Constraints: 
                CA:FALSE
            X509v3 Key Usage: critical
                Digital Signature, Non Repudiation, Key Encipherment, Data Encipherment
            X509v3 Extended Key Usage: 
                TLS Web Server Authentication
            X509v3 Subject Key Identifier: 
                28:6B:DB:81:B7:66:33:99:61:BD:27:83:B6:50:92:F3:0D:14:C1:3C
    Signature Algorithm: sha256WithRSAEncryption
         23:95:a8:73:65:c4:b1:b0:46:4d:9f:3e:ec:d4:a9:eb:a5:35:
         34:96:a9:e6:2b:2b:f5:68:df:c5:d3:98:c5:9c:90:cf:5e:b3:
         19:b0:cb:20:4b:69:5b:fe:da:f6:ea:dd:a7:d3:14:af:ab:ad:
         1b:fa:80:52:47:a7:9b:c1:17:69:36:ae:26:37:8a:c4:27:ee:
         99:f8:62:24:33:8d:4d:56:77:41:ff:6a:38:85:53:2f:28:29:
         d7:f3:6b:3c:c8:bd:12:d4:84:d3:76:82:dd:d5:b7:4a:be:14:
         9b:dd:6b:35:3d:66:e3:a1:f0:46:f2:cc:92:dd:b6:50:cb:4f:
         54:bd:a7:ab:f7:75:83:f6:9f:6b:06:d4:f5:c2:11:78:55:aa:
         c8:bd:c9:25:b7:f2:81:5d:06:b2:f8:43:57:fb:a7:5b:00:b1:
         05:5f:c8:43:c9:81:0d:d0:98:b8:68:ce:61:32:5b:91:a0:d9:
         0d:5f:61:b8:ff:61:01:f4:05:ce:f5:12:47:2c:e6:79:7e:e5:
         51:d9:e2:45:83:96:22:40:14:56:61:da:05:6f:58:74:69:e2:
         f5:cc:ad:47:32:7b:3a:94:59:d5:43:2f:7c:98:34:c7:19:73:
         c2:cb:ec:8e:54:d2:f2:75:9c:c6:2c:2c:40:3a:b7:96:b1:e4:
         b4:0d:35:83:9e:8c:33:57:47:32:24:da:83:41:c2:ab:79:df:
         16:3e:6f:ee:c6:38:2b:ef:61:82:f8:5b:cc:fa:54:ea:ab:aa:
         8d:b3:68:dc:af:b3:f6:af:ce:cb:4c:05:96:e0:a5:89:75:f0:
         2e:05:ee:33:27:83:2c:8b:07:0c:ec:f5:19:57:41:74:fb:a1:
         37:83:63:95:36:15:5d:5e:9e:06:47:31:a1:b0:62:72:27:96:
         30:b0:dc:1d:3a:cb:0d:64:dc:5f:02:ed:55:b6:35:6d:13:63:
         8a:20:bd:85:da:2f:25:a5:c7:7d:0a:f7:e8:fd:bb:16:d9:a8:
         e8:77:a2:23:b5:e8:c1:2b:59:aa:9c:a1:18:7b:2e:52:46:84:
         e7:95:52:a1:bc:3f:66:e4:d8:3c:fb:8c:67:02:38:be:85:c9:
         0b:fa:a2:c6:f7:62:72:00:6d:5f:69:d8:3e:43:ea:f6:03:83:
         72:68:77:12:a1:76:c7:6b:b8:11:24:c5:79:e5:d3:9f:b6:d8:
         ae:bc:1f:c2:8e:75:c9:26:49:90:e1:1c:94:e5:3d:47:60:10:
         3c:bc:d5:1d:09:de:f5:57:5f:77:4b:fe:59:8a:6f:12:6b:24:
         f7:c7:83:1a:63:dd:fd:b6:45:cd:ca:7b:25:20:33:77:20:8b:
         fe:ca:04:98:1e:f9:9e:5d
-----BEGIN CERTIFICATE-----
MIIEbjCCAlagAwIBAgIBBjANBgkqhkiG9w0BAQsFADCBgTELMAkGA1UEBhMCTkwx
EzARBgNVBAgTCkdlbGRlcmxhbmQxDzANBgNVBAcTBkFybmhlbTENMAsGA1UEChME
T1NHUDENMAsGA1UECxMET1NHUDENMAsGA1UEAxMET1NHUDEfMB0GCSqGSIb3DQEJ
ARYQYWRkcmVzc0BPU0dQLmNvbTAeFw0xNjEyMTIxMDU3NDFaFw0xOTEyMTIxMDU3
NDFaMCAxHjAcBgNVBAMMFW9zZ3AtdHN0LmNsb3VkYXBwLm5ldDCCASIwDQYJKoZI
hvcNAQEBBQADggEPADCCAQoCggEBALUss752dgfuI5gmAbUeyFAn0MjQXiz6Hph1
OYBMJ+7KSFKKdZuF5NFz4Q5Fi2D4ZXzGoMZkIkSgJ7zFGpN9fTbxoes0rEgF4mo7
ktb5HgAPhHn9W73Etqufmnb5s8oeK7JBRW3jsRS7949p4aHQ6XEWAh6TDDaSsJXm
9WirLwF537FxzAtsqt0tFI32IdoVmQw5ybUSxbs8JJmgjyovEbbFgy8sqIiw6fWz
tZl5xIvJfWU0PDu7XoEIcXxMm1iBtaq/YD2DVXmOL4A7XTiVNfNsjtBzyQ4tjaSQ
SGjE0Xa0McHSZxylYvX8W3YcldaknHGsYNsp7GTIp1YNrZLvUoMCAwEAAaNRME8w
CQYDVR0TBAIwADAOBgNVHQ8BAf8EBAMCBPAwEwYDVR0lBAwwCgYIKwYBBQUHAwEw
HQYDVR0OBBYEFChr24G3ZjOZYb0ng7ZQkvMNFME8MA0GCSqGSIb3DQEBCwUAA4IC
AQAjlahzZcSxsEZNnz7s1KnrpTU0lqnmKyv1aN/F05jFnJDPXrMZsMsgS2lb/tr2
6t2n0xSvq60b+oBSR6ebwRdpNq4mN4rEJ+6Z+GIkM41NVndB/2o4hVMvKCnX82s8
yL0S1ITTdoLd1bdKvhSb3Ws1PWbjofBG8syS3bZQy09Uvaer93WD9p9rBtT1whF4
VarIvcklt/KBXQay+ENX+6dbALEFX8hDyYEN0Ji4aM5hMluRoNkNX2G4/2EB9AXO
9RJHLOZ5fuVR2eJFg5YiQBRWYdoFb1h0aeL1zK1HMns6lFnVQy98mDTHGXPCy+yO
VNLydZzGLCxAOreWseS0DTWDnowzV0cyJNqDQcKred8WPm/uxjgr72GC+FvM+lTq
q6qNs2jcr7P2r87LTAWW4KWJdfAuBe4zJ4MsiwcM7PUZV0F0+6E3g2OVNhVdXp4G
RzGhsGJyJ5YwsNwdOssNZNxfAu1VtjVtE2OKIL2F2i8lpcd9Cvfo/bsW2ajod6Ij
tejBK1mqnKEYey5SRoTnlVKhvD9m5Ng8+4xnAji+hckL+qLG92JyAG1fadg+Q+r2
A4NyaHcSoXbHa7gRJMV55dOfttiuvB/CjnXJJkmQ4RyU5T1HYBA8vNUdCd71V193
S/5Zim8SayT3x4MaY939tkXNynslIDN3IIv+ygSYHvmeXQ==
-----END CERTIFICATE-----
