Certificate:
    Data:
        Version: 3 (0x2)
        Serial Number: 7 (0x7)
    Signature Algorithm: sha256WithRSAEncryption
        Issuer: C=NL, ST=Gelderland, L=Arnhem, O=OSGP, OU=OSGP, CN=OSGP/emailAddress=address@OSGP.com
        Validity
            Not Before: Mar  9 13:48:01 2017 GMT
            Not After : Mar  8 13:48:01 2020 GMT
        Subject: CN=*.dev.osgp.cloud
        Subject Public Key Info:
            Public Key Algorithm: rsaEncryption
                Public-Key: (2048 bit)
                Modulus:
                    00:b2:00:f5:ae:10:ff:43:cf:bb:be:0d:02:c3:5f:
                    09:03:47:65:35:70:09:b8:92:8a:16:fc:b4:f8:8c:
                    a1:64:d0:fa:39:c9:1f:27:89:d9:fc:62:f0:3f:16:
                    28:30:d5:75:4a:56:36:54:18:ae:05:82:ce:78:2e:
                    d3:b0:de:f8:cd:92:c1:b6:6d:62:f9:0e:53:6e:28:
                    42:f4:76:13:34:32:d1:9a:39:b2:3b:9f:77:1c:79:
                    87:66:c4:3c:7a:8d:f7:0a:31:6d:b4:88:fe:31:37:
                    b6:b0:37:7b:de:f6:db:7e:2d:78:ed:20:16:2b:aa:
                    1c:c3:79:47:48:17:09:e6:1e:07:02:fe:42:c4:1d:
                    a6:89:78:f0:ca:a1:3d:93:7a:69:61:7a:b3:4a:f1:
                    5b:3b:e4:40:4e:01:cc:91:49:05:66:93:59:6c:f5:
                    60:61:7b:3f:99:47:3f:3e:4a:60:6f:58:61:4e:21:
                    54:a6:ac:94:3a:75:9c:1e:45:e9:d7:78:7f:0a:f0:
                    88:9a:45:93:91:6f:be:4c:db:49:4d:ae:34:fb:2d:
                    9d:06:9a:71:75:8b:fd:8e:20:18:b2:0e:3f:d9:ad:
                    78:78:50:60:42:a7:e7:3b:50:cf:e3:87:4a:eb:16:
                    9d:bf:8d:a0:a8:bc:9b:af:25:d8:20:c2:18:5c:52:
                    d8:51
                Exponent: 65537 (0x10001)
        X509v3 extensions:
            X509v3 Basic Constraints: 
                CA:FALSE
            X509v3 Key Usage: critical
                Digital Signature, Non Repudiation, Key Encipherment, Data Encipherment
            X509v3 Extended Key Usage: 
                TLS Web Server Authentication
            X509v3 Subject Key Identifier: 
                C5:D2:C5:74:C8:D8:3D:0C:D7:26:61:89:A3:A6:26:22:15:09:B6:E7
    Signature Algorithm: sha256WithRSAEncryption
         2c:fe:7d:96:56:40:0d:58:73:92:f3:c8:12:11:a3:fd:c6:53:
         4f:07:f4:71:51:91:7a:e0:08:27:47:e6:da:d7:d7:4e:97:58:
         22:28:18:fc:09:5a:25:2d:51:8f:a7:c6:f8:70:d2:dc:01:fa:
         fa:bf:81:bb:41:f3:c2:fd:c0:72:ba:bc:9b:c3:27:c2:c2:ad:
         11:57:55:44:b9:f1:57:f5:bd:30:44:20:10:b1:2b:f9:69:f1:
         b5:d7:52:84:2f:e9:7d:11:64:7b:39:18:77:33:ea:32:b8:d6:
         e9:f9:2b:dd:e6:c6:f8:0a:3d:31:3a:10:e1:c1:ef:87:83:59:
         3f:5e:43:e4:73:56:e0:38:5f:1c:79:d2:d8:6a:7f:a3:e3:14:
         14:1c:91:07:13:2d:46:5b:28:c6:49:d4:2e:f1:84:75:a1:8f:
         8a:0d:0d:da:b7:e9:5d:2f:4e:fc:af:86:98:b2:b9:7f:2f:d4:
         4a:b6:fb:b8:d7:6c:d9:5d:e9:60:79:9a:50:4d:15:ee:04:1e:
         1b:51:30:22:c2:fb:47:61:3d:cf:d5:4a:55:58:44:67:56:38:
         19:42:ae:87:1d:b1:c2:8d:20:9c:c1:d1:df:7d:21:43:f2:d8:
         23:8e:18:e9:49:3e:66:16:5d:a5:62:8e:c0:eb:ac:54:d3:0a:
         eb:54:82:b1:e7:8b:d0:e4:bd:e6:45:18:d9:7e:7a:c9:cb:67:
         b3:14:9d:e5:ea:be:81:48:69:5d:f3:e6:41:d1:a3:bc:84:65:
         ab:24:bf:75:e3:8d:11:30:2a:67:ba:30:fa:d7:57:c8:2c:cb:
         db:d6:c4:06:3d:91:10:44:5e:c8:17:79:56:87:91:27:63:78:
         78:7f:70:1a:7d:6c:28:74:93:ad:ed:0e:4d:ba:ae:01:b4:08:
         ff:b1:16:f8:0b:8b:8e:d2:94:fa:6b:5e:f2:1e:ca:8c:a4:d7:
         48:05:b8:80:77:4b:72:ff:67:f7:c0:b4:36:a2:7d:74:24:33:
         9c:22:a4:f4:7c:4b:b7:25:b9:95:ff:d2:84:96:f2:11:5b:4b:
         a5:90:42:82:4b:cc:1c:7f:bc:50:36:7d:cc:a1:a8:52:69:48:
         a7:2a:49:90:bb:e5:46:f5:dd:b2:d8:8a:f2:81:a6:bf:86:8b:
         17:e1:63:a7:e7:f2:4e:db:44:0f:d6:32:3d:0b:21:20:0f:d8:
         c4:bb:8f:56:d4:49:33:28:8e:9a:ec:2e:6d:af:ae:0f:26:44:
         e5:89:3f:bd:a9:9b:49:23:7e:3c:5d:58:e8:53:bd:73:81:1e:
         59:35:d4:8b:f5:94:6d:6e:1a:e0:d9:aa:9c:2b:6f:8d:4f:b4:
         d8:51:1c:95:c3:4f:20:55
-----BEGIN CERTIFICATE-----
MIIEaTCCAlGgAwIBAgIBBzANBgkqhkiG9w0BAQsFADCBgTELMAkGA1UEBhMCTkwx
EzARBgNVBAgTCkdlbGRlcmxhbmQxDzANBgNVBAcTBkFybmhlbTENMAsGA1UEChME
T1NHUDENMAsGA1UECxMET1NHUDENMAsGA1UEAxMET1NHUDEfMB0GCSqGSIb3DQEJ
ARYQYWRkcmVzc0BPU0dQLmNvbTAeFw0xNzAzMDkxMzQ4MDFaFw0yMDAzMDgxMzQ4
MDFaMBsxGTAXBgNVBAMMECouZGV2Lm9zZ3AuY2xvdWQwggEiMA0GCSqGSIb3DQEB
AQUAA4IBDwAwggEKAoIBAQCyAPWuEP9Dz7u+DQLDXwkDR2U1cAm4kooW/LT4jKFk
0Po5yR8nidn8YvA/Figw1XVKVjZUGK4Fgs54LtOw3vjNksG2bWL5DlNuKEL0dhM0
MtGaObI7n3cceYdmxDx6jfcKMW20iP4xN7awN3ve9tt+LXjtIBYrqhzDeUdIFwnm
HgcC/kLEHaaJePDKoT2TemlherNK8Vs75EBOAcyRSQVmk1ls9WBhez+ZRz8+SmBv
WGFOIVSmrJQ6dZweRenXeH8K8IiaRZORb75M20lNrjT7LZ0GmnF1i/2OIBiyDj/Z
rXh4UGBCp+c7UM/jh0rrFp2/jaCovJuvJdggwhhcUthRAgMBAAGjUTBPMAkGA1Ud
EwQCMAAwDgYDVR0PAQH/BAQDAgTwMBMGA1UdJQQMMAoGCCsGAQUFBwMBMB0GA1Ud
DgQWBBTF0sV0yNg9DNcmYYmjpiYiFQm25zANBgkqhkiG9w0BAQsFAAOCAgEALP59
llZADVhzkvPIEhGj/cZTTwf0cVGReuAIJ0fm2tfXTpdYIigY/AlaJS1Rj6fG+HDS
3AH6+r+Bu0Hzwv3Acrq8m8MnwsKtEVdVRLnxV/W9MEQgELEr+WnxtddShC/pfRFk
ezkYdzPqMrjW6fkr3ebG+Ao9MToQ4cHvh4NZP15D5HNW4DhfHHnS2Gp/o+MUFByR
BxMtRlsoxknULvGEdaGPig0N2rfpXS9O/K+GmLK5fy/USrb7uNds2V3pYHmaUE0V
7gQeG1EwIsL7R2E9z9VKVVhEZ1Y4GUKuhx2xwo0gnMHR330hQ/LYI44Y6Uk+ZhZd
pWKOwOusVNMK61SCseeL0OS95kUY2X56yctnsxSd5eq+gUhpXfPmQdGjvIRlqyS/
deONETAqZ7ow+tdXyCzL29bEBj2REEReyBd5VoeRJ2N4eH9wGn1sKHSTre0OTbqu
AbQI/7EW+AuLjtKU+mte8h7KjKTXSAW4gHdLcv9n98C0NqJ9dCQznCKk9HxLtyW5
lf/ShJbyEVtLpZBCgkvMHH+8UDZ9zKGoUmlIpypJkLvlRvXdstiK8oGmv4aLF+Fj
p+fyTttED9YyPQshIA/YxLuPVtRJMyiOmuwuba+uDyZE5Yk/vambSSN+PF1Y6FO9
c4EeWTXUi/WUbW4a4NmqnCtvjU+02FEclcNPIFU=
-----END CERTIFICATE-----
