Certificate:
    Data:
        Version: 3 (0x2)
        Serial Number: 8 (0x8)
    Signature Algorithm: sha256WithRSAEncryption
        Issuer: C=NL, ST=Gelderland, L=Arnhem, O=OSGP, OU=OSGP, CN=OSGP/emailAddress=address@OSGP.com
        Validity
            Not Before: Apr 12 11:06:13 2017 GMT
            Not After : Apr 11 11:06:13 2020 GMT
        Subject: CN=OSGP
        Subject Public Key Info:
            Public Key Algorithm: rsaEncryption
                Public-Key: (2048 bit)
                Modulus:
                    00:d1:86:ed:d6:fe:ac:13:58:c5:d3:8d:38:96:d9:
                    18:38:2a:1b:d0:a7:4d:8d:8f:b3:ea:89:e8:0a:31:
                    26:cc:bb:54:e4:dd:da:34:3f:be:e0:e2:3c:4c:3c:
                    0d:75:e4:2f:91:65:ef:b4:8f:b6:b6:0f:5f:ec:21:
                    e6:1e:b9:e8:25:6c:91:89:b1:0e:08:c0:4d:50:fe:
                    04:50:63:db:f4:b9:b8:bd:c7:8d:e4:fd:41:2f:51:
                    51:62:c9:d2:50:c8:b5:98:47:4f:1d:13:b0:bd:30:
                    78:98:c0:40:cf:9c:12:9b:45:0c:c2:52:ca:89:4a:
                    d6:24:d9:d0:31:6e:61:68:f3:1a:15:a1:b3:90:4e:
                    eb:7b:0e:80:35:7d:48:76:10:aa:34:e6:4b:e5:76:
                    7a:a9:47:91:4a:00:16:85:ab:13:48:47:ff:83:06:
                    27:89:db:f0:21:e5:c1:39:f7:ba:12:39:e2:00:55:
                    90:a0:42:45:6e:91:90:57:1d:00:24:42:7f:17:7f:
                    38:48:26:91:28:1c:03:07:e9:8b:2f:04:45:cf:65:
                    de:43:f1:19:76:52:92:d6:19:7d:4b:02:1f:6b:63:
                    69:3e:19:c3:54:e0:22:cf:94:40:e3:d7:78:c9:d8:
                    f6:98:bc:0a:b2:3f:b1:4b:48:7b:4b:5d:fb:e7:17:
                    2e:b3
                Exponent: 65537 (0x10001)
        X509v3 extensions:
            X509v3 Basic Constraints: 
                CA:FALSE
            X509v3 Key Usage: critical
                Digital Signature, Non Repudiation, Key Encipherment, Data Encipherment
            X509v3 Extended Key Usage: 
                TLS Web Client Authentication
            X509v3 Subject Key Identifier: 
                D6:9B:5A:E2:F1:6C:00:4F:3E:65:AC:62:7E:42:1E:3D:80:07:08:01
    Signature Algorithm: sha256WithRSAEncryption
         42:6e:fc:a1:23:78:6d:86:57:57:17:ac:2e:5a:13:e5:8a:60:
         6d:5e:32:7f:e3:88:59:94:d5:0a:c6:b4:18:87:26:8f:b4:e9:
         b2:a9:66:31:f2:c2:f7:ed:3e:8b:5f:57:50:57:57:97:f1:7c:
         49:5d:df:ae:af:d0:42:e9:ef:16:55:e9:d0:c9:1c:af:a8:4a:
         e9:7a:2c:0a:27:dc:c6:85:7d:f5:3a:b6:f7:12:fd:1c:e5:98:
         b0:18:91:c1:2c:0f:71:c4:31:4c:37:27:9d:99:bf:9f:97:7f:
         40:c8:ad:18:d8:ac:50:a2:af:db:5d:22:1e:1d:38:c9:ee:13:
         d4:bc:21:6b:86:e3:f6:d5:cb:86:ad:97:a1:f7:de:2b:4b:c7:
         1c:c3:7d:c2:4e:12:d4:ed:1a:fb:0f:09:26:0d:dc:2e:e3:ef:
         43:89:b4:3f:af:4b:ba:09:d7:2a:01:6c:e1:8b:7e:13:a7:be:
         d0:2c:2e:88:60:6a:08:fa:ea:5c:5f:aa:f1:3e:9a:d1:ba:1f:
         82:fc:1b:35:be:81:8d:02:53:31:7e:7a:f6:b5:f9:23:84:9c:
         9e:90:17:a6:67:33:4f:ab:1b:52:f7:3f:5e:35:14:54:71:ec:
         d2:d5:9d:72:1c:75:f3:b3:d0:d8:2c:93:85:ca:72:96:71:cd:
         38:a4:1e:d2:15:95:7a:9c:cc:4c:03:5b:81:33:75:d2:23:15:
         a9:f2:44:61:8e:94:a9:bf:b6:68:cb:11:1f:63:90:b1:53:20:
         cc:73:b8:df:e7:21:30:53:4f:e7:40:c2:f0:7b:85:b3:66:6e:
         3c:a7:ab:8d:7d:5e:18:ec:b2:a4:3f:8b:e8:69:11:9b:8a:d7:
         96:a6:71:9d:4e:f0:66:af:6a:d1:16:09:66:a5:45:a4:b8:d4:
         9d:3b:48:47:90:2f:39:aa:4f:ee:bd:5f:f7:7e:e2:23:54:03:
         45:9d:20:41:17:1d:ad:6f:98:ae:59:92:47:ed:f6:b9:94:e3:
         45:58:a8:1d:17:18:59:12:5a:2f:21:6a:dc:26:4a:47:c3:df:
         87:1d:c0:25:ea:1b:16:4d:5b:53:fd:e4:f5:80:03:17:5e:9d:
         78:c8:60:4d:af:5d:80:4a:26:e9:02:ae:d9:a8:f5:42:e8:45:
         22:6c:b6:a3:2d:6f:9c:36:8a:f8:da:2d:1b:d3:d9:04:ea:45:
         03:26:d1:2c:14:82:7f:bf:22:88:1d:02:30:88:03:b2:62:f5:
         49:1b:92:7c:38:69:6b:f0:56:49:d8:8c:8a:b6:60:15:cc:05:
         5e:83:0a:ea:1b:24:34:3e:4a:ea:32:96:61:8a:f1:36:fd:96:
         c0:7f:d5:65:bf:5f:ea:80
-----BEGIN CERTIFICATE-----
MIIEXTCCAkWgAwIBAgIBCDANBgkqhkiG9w0BAQsFADCBgTELMAkGA1UEBhMCTkwx
EzARBgNVBAgTCkdlbGRlcmxhbmQxDzANBgNVBAcTBkFybmhlbTENMAsGA1UEChME
T1NHUDENMAsGA1UECxMET1NHUDENMAsGA1UEAxMET1NHUDEfMB0GCSqGSIb3DQEJ
ARYQYWRkcmVzc0BPU0dQLmNvbTAeFw0xNzA0MTIxMTA2MTNaFw0yMDA0MTExMTA2
MTNaMA8xDTALBgNVBAMMBE9TR1AwggEiMA0GCSqGSIb3DQEBAQUAA4IBDwAwggEK
AoIBAQDRhu3W/qwTWMXTjTiW2Rg4KhvQp02Nj7PqiegKMSbMu1Tk3do0P77g4jxM
PA115C+RZe+0j7a2D1/sIeYeueglbJGJsQ4IwE1Q/gRQY9v0ubi9x43k/UEvUVFi
ydJQyLWYR08dE7C9MHiYwEDPnBKbRQzCUsqJStYk2dAxbmFo8xoVobOQTut7DoA1
fUh2EKo05kvldnqpR5FKABaFqxNIR/+DBieJ2/Ah5cE597oSOeIAVZCgQkVukZBX
HQAkQn8XfzhIJpEoHAMH6YsvBEXPZd5D8Rl2UpLWGX1LAh9rY2k+GcNU4CLPlEDj
13jJ2PaYvAqyP7FLSHtLXfvnFy6zAgMBAAGjUTBPMAkGA1UdEwQCMAAwDgYDVR0P
AQH/BAQDAgTwMBMGA1UdJQQMMAoGCCsGAQUFBwMCMB0GA1UdDgQWBBTWm1ri8WwA
Tz5lrGJ+Qh49gAcIATANBgkqhkiG9w0BAQsFAAOCAgEAQm78oSN4bYZXVxesLloT
5YpgbV4yf+OIWZTVCsa0GIcmj7TpsqlmMfLC9+0+i19XUFdXl/F8SV3frq/QQunv
FlXp0Mkcr6hK6XosCifcxoV99Tq29xL9HOWYsBiRwSwPccQxTDcnnZm/n5d/QMit
GNisUKKv210iHh04ye4T1Lwha4bj9tXLhq2XoffeK0vHHMN9wk4S1O0a+w8JJg3c
LuPvQ4m0P69LugnXKgFs4Yt+E6e+0CwuiGBqCPrqXF+q8T6a0bofgvwbNb6BjQJT
MX569rX5I4ScnpAXpmczT6sbUvc/XjUUVHHs0tWdchx187PQ2CyThcpylnHNOKQe
0hWVepzMTANbgTN10iMVqfJEYY6Uqb+2aMsRH2OQsVMgzHO43+chMFNP50DC8HuF
s2ZuPKerjX1eGOyypD+L6GkRm4rXlqZxnU7wZq9q0RYJZqVFpLjUnTtIR5AvOapP
7r1f937iI1QDRZ0gQRcdrW+YrlmSR+32uZTjRVioHRcYWRJaLyFq3CZKR8Pfhx3A
JeobFk1bU/3k9YADF16deMhgTa9dgEom6QKu2aj1QuhFImy2oy1vnDaK+NotG9PZ
BOpFAybRLBSCf78iiB0CMIgDsmL1SRuSfDhpa/BWSdiMirZgFcwFXoMK6hskND5K
6jKWYYrxNv2WwH/VZb9f6oA=
-----END CERTIFICATE-----
