Certificate:
    Data:
        Version: 3 (0x2)
        Serial Number: 9 (0x9)
    Signature Algorithm: sha256WithRSAEncryption
        Issuer: C=NL, ST=Gelderland, L=Arnhem, O=OSGP, OU=OSGP, CN=OSGP/emailAddress=address@OSGP.com
        Validity
            Not Before: Apr 30 09:31:16 2018 GMT
            Not After : Apr 29 09:31:16 2021 GMT
        Subject: CN=localhost
        Subject Public Key Info:
            Public Key Algorithm: rsaEncryption
                Public-Key: (2048 bit)
                Modulus:
                    00:f1:4b:91:ca:8b:c2:52:91:21:ff:84:c7:8c:c0:
                    b5:4b:47:7e:1b:59:aa:ad:79:fb:af:cd:34:95:48:
                    43:31:22:23:99:e9:c5:b3:7b:ca:f5:44:55:e1:13:
                    9c:02:8f:94:01:77:07:b1:7d:4d:81:79:fd:27:84:
                    a8:30:f6:94:db:f4:8c:91:5a:93:9e:23:3d:50:df:
                    92:2c:d6:52:01:2f:e6:5f:d8:65:d4:0a:b0:9d:00:
                    4b:b0:33:1e:ac:43:58:13:30:4b:66:da:8d:86:9d:
                    fe:15:07:46:bb:b6:f5:69:29:09:6a:58:27:e2:cb:
                    de:41:b8:27:77:f0:a8:16:93:0e:c2:d8:1b:32:de:
                    87:04:f1:78:40:99:e5:d2:08:4a:34:a5:2b:09:ac:
                    8c:7b:b2:5b:3d:20:b4:31:9d:a4:92:a1:09:47:4c:
                    90:f6:c0:28:72:8f:3b:1b:71:97:72:76:56:f7:be:
                    b4:74:6e:34:2a:2b:d4:80:30:fb:27:9e:d4:30:f3:
                    cb:02:42:6b:30:7c:2e:0c:e0:aa:7c:25:fe:c7:eb:
                    7a:9e:fc:6b:54:e7:52:69:ff:af:83:59:1f:fc:5c:
                    51:d5:3d:dd:0c:d1:eb:f6:75:41:18:43:99:93:8e:
                    4a:21:61:b1:5f:54:f7:11:ec:4b:83:3d:b4:23:dd:
                    15:43
                Exponent: 65537 (0x10001)
        X509v3 extensions:
            X509v3 Basic Constraints: 
                CA:FALSE
            X509v3 Key Usage: critical
                Digital Signature, Non Repudiation, Key Encipherment, Data Encipherment
            X509v3 Extended Key Usage: 
                TLS Web Server Authentication
            X509v3 Subject Key Identifier: 
                5C:A1:86:F4:90:61:4E:F0:A4:9C:C7:45:BF:EC:49:F9:DA:96:2D:0D
    Signature Algorithm: sha256WithRSAEncryption
         cb:79:f1:d8:12:06:df:5d:88:13:97:33:76:10:33:e9:b4:fb:
         e8:5e:32:62:69:e9:51:d4:2b:22:07:79:66:83:de:03:a7:32:
         a7:73:01:5c:9d:d9:e8:04:b2:05:b1:99:50:3a:e1:de:ce:2d:
         8f:35:34:ae:00:43:95:b3:2a:33:77:f4:e7:23:4d:3b:77:a0:
         dd:55:03:f7:e4:4a:27:8d:f0:c7:d3:42:9d:ed:c9:2c:6d:f1:
         08:e1:ee:9a:dc:a5:5b:90:ec:98:e5:16:bb:2a:c7:13:c1:06:
         8a:f7:ab:e8:34:eb:52:c8:80:73:3c:83:64:2b:2d:56:5d:1b:
         c0:fb:91:31:b1:77:bd:d2:3b:74:25:52:9a:7f:bd:bd:40:f7:
         2a:92:25:0c:87:c7:d2:53:cd:d3:2a:85:9f:61:88:d4:4f:26:
         67:5f:3d:60:f5:11:72:c4:20:b9:95:e1:b7:06:2f:e2:77:22:
         b1:76:31:6b:95:96:79:34:73:c6:39:7d:2e:ba:c6:d3:91:0b:
         bf:bb:b5:66:a5:a5:7a:02:ac:97:ac:bd:28:35:f5:7c:c3:f7:
         82:ef:1d:1a:a5:ee:b0:4e:e0:d0:f2:28:01:45:84:ff:84:ff:
         4e:be:79:b0:e5:17:b0:5c:1f:30:36:06:4a:9a:0b:c9:83:76:
         18:fd:db:f7:4b:64:23:c6:3a:2a:d0:dc:8b:a4:3b:a6:0a:92:
         79:cb:85:1c:d2:9f:da:21:0d:05:a0:bc:57:d5:19:23:6d:44:
         ce:6b:1e:0b:f4:15:b7:98:f0:d7:db:c1:7f:20:d4:5a:2d:18:
         3d:2a:e7:cf:5e:a7:1a:96:fe:08:81:c0:4a:58:aa:07:9d:f1:
         ce:1e:6b:25:dd:d0:30:9a:12:f5:82:53:6c:f3:a8:32:03:93:
         cd:8a:6a:06:05:ed:72:76:65:bd:8d:ad:ea:72:36:55:9d:f3:
         d0:69:74:eb:56:83:14:d9:65:ed:96:0e:cc:81:73:d8:e2:99:
         b6:e8:2e:f8:a7:87:bc:ae:cc:f2:7f:a7:08:50:18:76:18:89:
         fa:60:58:2d:0c:7e:7e:65:b1:5d:ef:a7:83:3c:d8:14:94:c2:
         26:2b:c4:a7:cf:05:a2:b5:bd:7c:bb:f7:d1:c6:02:68:a8:c3:
         fa:45:df:ef:41:6d:52:5b:34:a6:9b:a8:36:51:b1:4a:a8:27:
         9b:22:39:09:49:a9:bc:1d:02:41:ee:37:19:c1:b9:90:d6:b9:
         d4:5e:29:6e:da:75:92:aa:ba:dc:9e:45:d9:cf:ae:4f:a9:3a:
         e2:95:ff:cd:a0:98:bc:4e:e0:f1:2d:03:7a:c0:e5:58:eb:9f:
         a6:b4:8a:44:ca:17:88:b7
-----BEGIN CERTIFICATE-----
MIIEYjCCAkqgAwIBAgIBCTANBgkqhkiG9w0BAQsFADCBgTELMAkGA1UEBhMCTkwx
EzARBgNVBAgTCkdlbGRlcmxhbmQxDzANBgNVBAcTBkFybmhlbTENMAsGA1UEChME
T1NHUDENMAsGA1UECxMET1NHUDENMAsGA1UEAxMET1NHUDEfMB0GCSqGSIb3DQEJ
ARYQYWRkcmVzc0BPU0dQLmNvbTAeFw0xODA0MzAwOTMxMTZaFw0yMTA0MjkwOTMx
MTZaMBQxEjAQBgNVBAMMCWxvY2FsaG9zdDCCASIwDQYJKoZIhvcNAQEBBQADggEP
ADCCAQoCggEBAPFLkcqLwlKRIf+Ex4zAtUtHfhtZqq15+6/NNJVIQzEiI5npxbN7
yvVEVeETnAKPlAF3B7F9TYF5/SeEqDD2lNv0jJFak54jPVDfkizWUgEv5l/YZdQK
sJ0AS7AzHqxDWBMwS2bajYad/hUHRru29WkpCWpYJ+LL3kG4J3fwqBaTDsLYGzLe
hwTxeECZ5dIISjSlKwmsjHuyWz0gtDGdpJKhCUdMkPbAKHKPOxtxl3J2Vve+tHRu
NCor1IAw+yee1DDzywJCazB8Lgzgqnwl/sfrep78a1TnUmn/r4NZH/xcUdU93QzR
6/Z1QRhDmZOOSiFhsV9U9xHsS4M9tCPdFUMCAwEAAaNRME8wCQYDVR0TBAIwADAO
BgNVHQ8BAf8EBAMCBPAwEwYDVR0lBAwwCgYIKwYBBQUHAwEwHQYDVR0OBBYEFFyh
hvSQYU7wpJzHRb/sSfnali0NMA0GCSqGSIb3DQEBCwUAA4ICAQDLefHYEgbfXYgT
lzN2EDPptPvoXjJiaelR1CsiB3lmg94DpzKncwFcndnoBLIFsZlQOuHezi2PNTSu
AEOVsyozd/TnI007d6DdVQP35EonjfDH00Kd7cksbfEI4e6a3KVbkOyY5Ra7KscT
wQaK96voNOtSyIBzPINkKy1WXRvA+5ExsXe90jt0JVKaf729QPcqkiUMh8fSU83T
KoWfYYjUTyZnXz1g9RFyxCC5leG3Bi/idyKxdjFrlZZ5NHPGOX0uusbTkQu/u7Vm
paV6AqyXrL0oNfV8w/eC7x0ape6wTuDQ8igBRYT/hP9Ovnmw5RewXB8wNgZKmgvJ
g3YY/dv3S2Qjxjoq0NyLpDumCpJ5y4Uc0p/aIQ0FoLxX1RkjbUTOax4L9BW3mPDX
28F/INRaLRg9KufPXqcalv4IgcBKWKoHnfHOHmsl3dAwmhL1glNs86gyA5PNimoG
Be1ydmW9ja3qcjZVnfPQaXTrVoMU2WXtlg7MgXPY4pm26C74p4e8rszyf6cIUBh2
GIn6YFgtDH5+ZbFd76eDPNgUlMImK8SnzwWitb18u/fRxgJoqMP6Rd/vQW1SWzSm
m6g2UbFKqCebIjkJSam8HQJB7jcZwbmQ1rnUXilu2nWSqrrcnkXZz65PqTrilf/N
oJi8TuDxLQN6wOVY65+mtIpEyheItw==
-----END CERTIFICATE-----
