Certificate:
    Data:
        Version: 3 (0x2)
        Serial Number: 10 (0xa)
    Signature Algorithm: sha256WithRSAEncryption
        Issuer: C=NL, ST=Gelderland, L=Arnhem, O=OSGP, OU=OSGP, CN=OSGP/emailAddress=address@OSGP.com
        Validity
            Not Before: Apr 30 09:31:39 2018 GMT
            Not After : Apr 29 09:31:39 2021 GMT
        Subject: CN=test-org
        Subject Public Key Info:
            Public Key Algorithm: rsaEncryption
                Public-Key: (2048 bit)
                Modulus:
                    00:b8:3c:26:61:6a:4d:2f:62:1b:76:d4:c2:e5:46:
                    08:9a:de:00:12:13:c5:67:7c:20:07:fd:17:2f:09:
                    af:15:f1:e6:67:d8:ea:83:44:90:f5:52:eb:f7:ce:
                    6b:e4:c6:dd:6c:dc:a7:00:6b:92:83:c2:2c:fc:1e:
                    3c:43:06:e1:b1:a1:1a:04:9f:16:a9:2d:b3:f9:b5:
                    09:fc:23:10:8b:ac:84:58:64:75:d4:bc:06:1f:bd:
                    e2:3e:60:d5:a7:15:0a:0c:05:ca:3d:92:1f:34:4b:
                    8e:b8:99:25:03:cc:0b:60:b7:f0:bb:3e:3a:50:14:
                    ae:42:32:1d:de:1b:1a:c8:f6:ce:60:71:2f:3e:24:
                    30:0f:cb:41:67:7d:19:8d:1e:eb:02:13:dc:14:47:
                    fa:c2:be:2d:e0:76:1f:84:fb:7c:35:c4:26:9d:bf:
                    c9:be:bd:45:e8:9a:f5:7b:87:14:9d:ed:82:c3:29:
                    eb:3e:30:37:1c:b9:ab:c8:b2:4f:80:f2:4a:b7:89:
                    4e:29:6e:3e:b2:78:93:cb:2a:a3:5a:95:fd:da:a9:
                    07:5b:58:48:9b:05:2a:35:bd:8d:e0:11:65:e8:36:
                    ea:a9:0c:d2:95:88:2a:0b:d1:ed:66:85:1f:d1:f3:
                    8c:f7:ea:f7:f9:70:c7:ea:7f:a7:03:e8:2b:ac:5d:
                    a6:1b
                Exponent: 65537 (0x10001)
        X509v3 extensions:
            X509v3 Basic Constraints: 
                CA:FALSE
            X509v3 Key Usage: critical
                Digital Signature, Non Repudiation, Key Encipherment, Data Encipherment
            X509v3 Extended Key Usage: 
                TLS Web Client Authentication
            X509v3 Subject Key Identifier: 
                92:07:17:74:05:E7:5F:B9:9B:D9:5C:A6:C5:B9:0D:48:A3:10:CA:B9
    Signature Algorithm: sha256WithRSAEncryption
         59:3d:c6:f3:42:22:1a:8d:b0:c6:64:26:0d:c7:7b:c6:cf:e0:
         10:a8:86:0a:17:1b:c6:cb:1c:48:64:ae:03:66:1e:1f:f2:a6:
         cb:0f:fd:fa:e2:e5:9c:2e:00:f7:19:e7:1c:a3:c2:b4:32:0e:
         a1:b6:20:89:c6:67:31:93:e1:97:8c:0e:b8:1f:a5:8d:2a:b3:
         68:3f:d9:5e:5f:b0:14:10:7a:98:6b:87:89:f8:56:eb:16:6f:
         d2:cd:e7:80:10:d6:66:e7:1e:12:db:34:52:f7:62:41:8b:5a:
         d3:fb:a4:4c:49:b0:3c:eb:4e:60:22:b6:2e:e5:33:05:59:e2:
         65:1c:e0:62:28:9a:b6:25:e3:1f:f3:93:5e:64:a1:77:41:fa:
         e0:58:b8:52:b4:48:0f:6e:82:dc:bb:bc:7d:91:14:13:7d:86:
         72:da:08:97:31:13:5a:7f:0e:32:da:64:bf:17:e6:57:d3:25:
         62:6f:85:25:7d:52:e2:35:9b:eb:03:03:c3:a8:e3:7d:02:43:
         b3:72:93:f5:e5:02:4c:54:35:b4:14:b4:22:b3:c7:09:8a:84:
         0b:97:a1:22:a0:f8:97:b5:9e:fb:d2:a0:d2:b8:08:ac:f9:e9:
         db:ec:5e:8b:d6:d1:a0:e3:c7:7c:5f:50:31:04:a9:d4:15:01:
         fa:71:e4:c7:6d:cb:8d:7a:b2:96:05:87:62:f5:00:72:61:3b:
         83:53:95:f3:f6:85:53:b3:64:9e:a6:37:3f:e7:bd:5f:20:66:
         1a:f1:bb:09:cb:80:ce:bc:00:a3:fe:9f:4b:b5:06:c0:3d:a8:
         ec:67:3a:2b:74:83:fb:b8:4a:62:15:d6:2f:d4:e2:e3:93:bb:
         0f:23:e0:8c:8b:1e:51:06:d9:7f:90:6f:2c:df:20:55:be:fe:
         a1:2e:b8:c0:8e:65:db:b7:4a:a5:f7:58:c3:76:b3:bf:4c:10:
         7a:1e:97:d3:64:6a:2a:2d:a3:be:7d:2f:33:1c:bd:c7:75:81:
         be:ca:ea:17:50:8e:8f:7b:c3:e5:90:d4:ee:ef:15:f0:1c:57:
         ce:26:7d:66:3b:46:ba:3c:50:12:ad:30:cf:70:f5:e6:16:ae:
         88:4c:db:f5:97:97:63:cc:6f:fd:fb:db:44:7b:e1:e1:ec:81:
         d1:4d:73:bd:8a:f5:8e:f9:ab:40:26:37:d4:62:34:47:c6:74:
         9f:af:41:45:ac:12:d8:70:3c:dc:2b:11:17:aa:aa:fc:18:25:
         d7:2e:01:e4:39:eb:1b:31:47:83:20:61:62:5a:88:6f:68:41:
         fb:2f:f7:16:5a:53:f2:6e:95:8a:bd:36:40:d5:cd:57:37:48:
         48:b0:9c:6e:4c:f4:44:33
-----BEGIN CERTIFICATE-----
MIIEYTCCAkmgAwIBAgIBCjANBgkqhkiG9w0BAQsFADCBgTELMAkGA1UEBhMCTkwx
EzARBgNVBAgTCkdlbGRlcmxhbmQxDzANBgNVBAcTBkFybmhlbTENMAsGA1UEChME
T1NHUDENMAsGA1UECxMET1NHUDENMAsGA1UEAxMET1NHUDEfMB0GCSqGSIb3DQEJ
ARYQYWRkcmVzc0BPU0dQLmNvbTAeFw0xODA0MzAwOTMxMzlaFw0yMTA0MjkwOTMx
MzlaMBMxETAPBgNVBAMMCHRlc3Qtb3JnMIIBIjANBgkqhkiG9w0BAQEFAAOCAQ8A
MIIBCgKCAQEAuDwmYWpNL2IbdtTC5UYImt4AEhPFZ3wgB/0XLwmvFfHmZ9jqg0SQ
9VLr985r5MbdbNynAGuSg8Is/B48QwbhsaEaBJ8WqS2z+bUJ/CMQi6yEWGR11LwG
H73iPmDVpxUKDAXKPZIfNEuOuJklA8wLYLfwuz46UBSuQjId3hsayPbOYHEvPiQw
D8tBZ30ZjR7rAhPcFEf6wr4t4HYfhPt8NcQmnb/Jvr1F6Jr1e4cUne2CwynrPjA3
HLmryLJPgPJKt4lOKW4+sniTyyqjWpX92qkHW1hImwUqNb2N4BFl6DbqqQzSlYgq
C9HtZoUf0fOM9+r3+XDH6n+nA+grrF2mGwIDAQABo1EwTzAJBgNVHRMEAjAAMA4G
A1UdDwEB/wQEAwIE8DATBgNVHSUEDDAKBggrBgEFBQcDAjAdBgNVHQ4EFgQUkgcX
dAXnX7mb2VymxbkNSKMQyrkwDQYJKoZIhvcNAQELBQADggIBAFk9xvNCIhqNsMZk
Jg3He8bP4BCohgoXG8bLHEhkrgNmHh/ypssP/fri5ZwuAPcZ5xyjwrQyDqG2IInG
ZzGT4ZeMDrgfpY0qs2g/2V5fsBQQephrh4n4VusWb9LN54AQ1mbnHhLbNFL3YkGL
WtP7pExJsDzrTmAiti7lMwVZ4mUc4GIomrYl4x/zk15koXdB+uBYuFK0SA9ugty7
vH2RFBN9hnLaCJcxE1p/DjLaZL8X5lfTJWJvhSV9UuI1m+sDA8Oo430CQ7Nyk/Xl
AkxUNbQUtCKzxwmKhAuXoSKg+Je1nvvSoNK4CKz56dvsXovW0aDjx3xfUDEEqdQV
Afpx5Mdty416spYFh2L1AHJhO4NTlfP2hVOzZJ6mNz/nvV8gZhrxuwnLgM68AKP+
n0u1BsA9qOxnOit0g/u4SmIV1i/U4uOTuw8j4IyLHlEG2X+QbyzfIFW+/qEuuMCO
Zdu3SqX3WMN2s79MEHoel9Nkaioto759LzMcvcd1gb7K6hdQjo97w+WQ1O7vFfAc
V84mfWY7Rro8UBKtMM9w9eYWrohM2/WXl2PMb/3720R74eHsgdFNc72K9Y75q0Am
N9RiNEfGdJ+vQUWsEthwPNwrEReqqvwYJdcuAeQ56xsxR4MgYWJaiG9oQfsv9xZa
U/JulYq9NkDVzVc3SEiwnG5M9EQz
-----END CERTIFICATE-----
