Certificate:
    Data:
        Version: 3 (0x2)
        Serial Number: 11 (0xb)
    Signature Algorithm: sha256WithRSAEncryption
        Issuer: C=NL, ST=Gelderland, L=Arnhem, O=OSGP, OU=OSGP, CN=OSGP/emailAddress=address@OSGP.com
        Validity
            Not Before: Sep  3 08:14:47 2019 GMT
            Not After : Apr  1 08:14:47 2025 GMT
        Subject: CN=Infostroom
        Subject Public Key Info:
            Public Key Algorithm: rsaEncryption
                Public-Key: (2048 bit)
                Modulus:
                    00:d2:f6:14:a0:33:f3:c1:f7:e6:40:5f:29:bc:12:
                    6d:f3:86:34:fd:e9:ea:13:68:d8:16:f4:9f:d1:7d:
                    4c:a8:d7:02:a6:8c:d7:41:2b:b2:53:56:8c:b4:74:
                    d3:f5:fa:38:d4:36:89:c2:04:c4:48:53:36:3a:67:
                    12:78:f1:e6:d0:e9:95:44:6e:98:5f:db:b8:9d:b1:
                    61:2a:77:cc:b7:7e:f7:52:9b:50:cd:40:24:62:e4:
                    c5:fb:7a:bf:07:f6:4a:97:2e:37:fa:b1:9e:de:c2:
                    19:8e:47:c8:b7:b8:0b:8e:58:15:33:f9:a5:fa:a0:
                    e6:f0:84:ce:80:b2:16:dc:e4:fb:d4:dc:6c:11:c0:
                    19:18:32:f4:03:25:88:cc:e8:e4:6a:7d:00:96:e5:
                    6b:8c:48:99:2e:53:aa:6c:b6:36:68:8c:45:3d:b4:
                    3a:b5:75:b3:a5:02:56:4f:8e:4e:3e:73:d9:ef:f7:
                    4d:bc:83:5a:55:c5:7d:be:0d:40:fc:53:b5:fd:5e:
                    a9:41:eb:c5:3c:95:39:b2:e8:98:e8:a2:7b:1a:97:
                    ea:af:a4:4a:91:66:21:d1:98:f7:d9:30:92:f6:1d:
                    08:de:14:8e:d0:a0:df:fd:81:a2:cb:79:b4:80:25:
                    cb:ea:33:0f:36:46:a5:7a:cd:6e:90:4d:c6:2b:4f:
                    a8:a5
                Exponent: 65537 (0x10001)
        X509v3 extensions:
            X509v3 Basic Constraints: 
                CA:FALSE
            X509v3 Key Usage: critical
                Digital Signature, Non Repudiation, Key Encipherment, Data Encipherment
            X509v3 Extended Key Usage: 
                TLS Web Client Authentication
            X509v3 Subject Key Identifier: 
                A2:CE:A2:A1:D6:C7:A6:84:F3:83:4A:84:65:9C:5B:26:4B:37:D4:48
    Signature Algorithm: sha256WithRSAEncryption
         18:f7:86:90:cd:77:e6:ed:5d:cb:7f:01:3b:12:97:4f:8a:91:
         b2:78:ba:bf:37:8e:11:fa:ca:29:b0:78:91:47:c3:9a:0a:de:
         a2:21:ca:ef:12:55:f8:e4:0f:2b:ac:1e:59:28:b6:12:89:f2:
         b9:7a:8b:12:90:e7:3b:eb:75:ac:03:2b:70:b2:f3:ce:ed:f0:
         a1:c4:14:a2:03:a5:10:f7:f8:48:36:02:fe:99:d3:70:28:b5:
         eb:48:64:1d:4e:b4:6e:53:07:ea:fa:2c:40:bd:df:71:a1:da:
         4c:33:7c:86:74:9d:b8:d5:7f:9b:2f:dc:7b:b2:fe:c5:f3:1a:
         ea:01:e2:96:7c:68:54:06:c4:86:39:9a:2e:20:9c:42:dc:4e:
         bf:2a:f3:16:5e:c4:a0:66:4c:59:3a:ec:22:40:1c:db:e0:10:
         ee:0a:6c:ce:e4:70:1d:cb:a0:65:e5:b9:fc:3a:2f:b3:32:0f:
         7d:ad:29:6d:38:f4:e0:5a:e4:9a:a6:1e:0e:74:2e:f1:d7:76:
         ea:7d:f2:3d:96:df:5d:5c:7b:34:ed:e9:34:10:9c:39:1f:3c:
         d8:57:ed:da:83:ea:2a:12:a1:7d:83:d6:b2:e7:f3:b2:2f:a4:
         ec:59:ba:d7:e1:ca:ce:f4:9c:60:ce:d9:53:23:2f:f4:f6:da:
         5c:e7:e7:2d:5d:49:be:44:5d:35:8e:94:18:e3:6a:b2:7e:fd:
         4b:da:fa:64:35:ea:51:af:ad:53:1d:9f:86:f5:ea:2a:a7:26:
         b0:ef:85:0f:f6:8e:94:58:48:05:53:8b:8c:0f:42:91:d1:b8:
         9a:a2:ca:8b:2c:1e:21:90:3f:c9:9c:18:79:20:8d:ed:86:46:
         6f:0c:6b:cc:5e:52:18:1a:4c:37:41:f6:95:d4:db:ff:53:04:
         c1:c3:01:a8:87:c8:e0:09:3b:d2:98:d0:68:73:6c:a0:73:76:
         a8:35:b7:62:08:2e:14:22:f9:8a:87:7b:be:48:e2:62:61:67:
         aa:16:64:84:2e:29:9b:44:18:a6:07:02:86:aa:3a:65:72:08:
         49:13:cb:29:41:cc:42:ac:bd:80:c5:a9:62:bb:dd:16:18:c7:
         e2:c2:2e:f3:c7:89:12:ff:12:0c:ef:c6:68:7d:e0:49:f2:16:
         23:70:65:dd:bf:38:90:ea:d0:9b:35:f1:ef:63:81:dd:93:9a:
         e9:0b:b5:59:bd:6a:cb:7c:ee:86:9c:41:f3:e6:75:fb:3e:37:
         8c:cc:86:f4:e5:0b:86:5e:3c:15:7a:c2:5d:61:9d:70:77:ae:
         c9:40:2d:21:fc:83:6d:a1:46:fd:5c:86:02:8a:fc:b7:47:e0:
         7c:fb:66:f5:44:53:5f:dd
-----BEGIN CERTIFICATE-----
MIIEYzCCAkugAwIBAgIBCzANBgkqhkiG9w0BAQsFADCBgTELMAkGA1UEBhMCTkwx
EzARBgNVBAgTCkdlbGRlcmxhbmQxDzANBgNVBAcTBkFybmhlbTENMAsGA1UEChME
T1NHUDENMAsGA1UECxMET1NHUDENMAsGA1UEAxMET1NHUDEfMB0GCSqGSIb3DQEJ
ARYQYWRkcmVzc0BPU0dQLmNvbTAeFw0xOTA5MDMwODE0NDdaFw0yNTA0MDEwODE0
NDdaMBUxEzARBgNVBAMMCkluZm9zdHJvb20wggEiMA0GCSqGSIb3DQEBAQUAA4IB
DwAwggEKAoIBAQDS9hSgM/PB9+ZAXym8Em3zhjT96eoTaNgW9J/RfUyo1wKmjNdB
K7JTVoy0dNP1+jjUNonCBMRIUzY6ZxJ48ebQ6ZVEbphf27idsWEqd8y3fvdSm1DN
QCRi5MX7er8H9kqXLjf6sZ7ewhmOR8i3uAuOWBUz+aX6oObwhM6Ashbc5PvU3GwR
wBkYMvQDJYjM6ORqfQCW5WuMSJkuU6pstjZojEU9tDq1dbOlAlZPjk4+c9nv9028
g1pVxX2+DUD8U7X9XqlB68U8lTmy6Jjoonsal+qvpEqRZiHRmPfZMJL2HQjeFI7Q
oN/9gaLLebSAJcvqMw82RqV6zW6QTcYrT6ilAgMBAAGjUTBPMAkGA1UdEwQCMAAw
DgYDVR0PAQH/BAQDAgTwMBMGA1UdJQQMMAoGCCsGAQUFBwMCMB0GA1UdDgQWBBSi
zqKh1semhPODSoRlnFsmSzfUSDANBgkqhkiG9w0BAQsFAAOCAgEAGPeGkM135u1d
y38BOxKXT4qRsni6vzeOEfrKKbB4kUfDmgreoiHK7xJV+OQPK6weWSi2EonyuXqL
EpDnO+t1rAMrcLLzzu3wocQUogOlEPf4SDYC/pnTcCi160hkHU60blMH6vosQL3f
caHaTDN8hnSduNV/my/ce7L+xfMa6gHilnxoVAbEhjmaLiCcQtxOvyrzFl7EoGZM
WTrsIkAc2+AQ7gpszuRwHcugZeW5/DovszIPfa0pbTj04FrkmqYeDnQu8dd26n3y
PZbfXVx7NO3pNBCcOR882Fft2oPqKhKhfYPWsufzsi+k7Fm61+HKzvScYM7ZUyMv
9PbaXOfnLV1JvkRdNY6UGONqsn79S9r6ZDXqUa+tUx2fhvXqKqcmsO+FD/aOlFhI
BVOLjA9CkdG4mqLKiyweIZA/yZwYeSCN7YZGbwxrzF5SGBpMN0H2ldTb/1MEwcMB
qIfI4Ak70pjQaHNsoHN2qDW3YgguFCL5iod7vkjiYmFnqhZkhC4pm0QYpgcChqo6
ZXIISRPLKUHMQqy9gMWpYrvdFhjH4sIu88eJEv8SDO/GaH3gSfIWI3Bl3b84kOrQ
mzXx72OB3ZOa6Qu1Wb1qy3zuhpxB8+Z1+z43jMyG9OULhl48FXrCXWGdcHeuyUAt
IfyDbaFG/VyGAor8t0fgfPtm9URTX90=
-----END CERTIFICATE-----
