Certificate:
    Data:
        Version: 3 (0x2)
        Serial Number: 12 (0xc)
    Signature Algorithm: sha256WithRSAEncryption
        Issuer: C=NL, ST=Gelderland, L=Arnhem, O=OSGP, OU=OSGP, CN=OSGP/emailAddress=address@OSGP.com
        Validity
            Not Before: Sep  3 08:14:57 2019 GMT
            Not After : Apr  1 08:14:57 2025 GMT
        Subject: CN=LianderNetManagement
        Subject Public Key Info:
            Public Key Algorithm: rsaEncryption
                Public-Key: (2048 bit)
                Modulus:
                    00:ac:0d:b7:19:be:54:a8:89:d8:d5:24:dd:8f:40:
                    46:c7:30:08:b6:c8:68:68:52:98:d7:57:5b:75:2f:
                    68:6d:0d:94:f4:e5:16:42:bf:dd:54:8c:b9:7f:91:
                    9b:2b:b6:36:02:d0:0d:92:fa:da:57:82:53:d8:44:
                    a7:77:fb:ae:8b:55:f9:4a:24:52:d4:8d:85:24:c2:
                    ad:c8:53:0b:b9:c7:6f:e3:14:4d:e8:54:5d:ad:07:
                    f0:6a:66:b6:96:1a:68:b1:2c:b9:ae:f8:48:4e:a5:
                    86:ef:f0:30:09:74:37:d5:a1:51:5a:99:07:2c:af:
                    43:45:3d:e9:94:6f:d0:29:d9:ab:ed:a7:18:6b:56:
                    1e:52:a8:f1:aa:f4:34:5d:65:16:3d:27:06:bd:91:
                    39:c7:16:bd:56:06:f8:06:c1:82:88:67:71:b4:f7:
                    a0:70:09:1b:b3:7d:9b:42:0d:1e:d8:f3:c0:a8:ca:
                    37:d7:a4:ee:14:59:35:71:aa:80:6f:26:ff:c7:cd:
                    04:17:ca:78:de:4a:d6:ca:a3:e6:bb:6c:76:14:6d:
                    ce:90:f1:4f:f8:bc:c5:96:da:da:9d:b9:03:03:6e:
                    92:3f:ae:ff:e1:04:82:64:fb:11:56:11:82:39:d6:
                    c1:83:4d:6f:83:02:d6:0d:5f:0f:de:df:0a:c5:2a:
                    59:f3
                Exponent: 65537 (0x10001)
        X509v3 extensions:
            X509v3 Basic Constraints: 
                CA:FALSE
            X509v3 Key Usage: critical
                Digital Signature, Non Repudiation, Key Encipherment, Data Encipherment
            X509v3 Extended Key Usage: 
                TLS Web Client Authentication
            X509v3 Subject Key Identifier: 
                A8:71:CA:C6:57:11:2F:83:9C:14:77:6E:9A:9E:77:5A:0D:EC:8E:29
    Signature Algorithm: sha256WithRSAEncryption
         65:fb:cf:20:20:fb:f2:a4:e6:38:9e:42:6c:25:0d:60:97:d8:
         74:4b:95:dd:a5:6e:f7:39:ff:78:92:d3:46:97:77:43:0f:c4:
         41:4c:f1:26:ab:84:be:2f:c1:7a:4b:34:59:41:f3:9a:d3:4e:
         b7:d0:83:c7:de:0c:11:b8:e5:52:23:6e:5c:92:46:e8:6b:37:
         d2:a6:72:4f:49:44:e7:64:09:5a:58:7b:3f:06:b8:59:d6:9f:
         4a:6c:94:ae:79:3d:b0:27:cb:38:9f:55:86:49:54:06:4f:3e:
         45:c9:98:d9:76:fe:04:9f:5c:03:45:01:c8:7b:cf:d5:35:83:
         15:f0:ec:ae:6e:58:40:88:8b:36:25:e6:84:66:6c:66:ee:08:
         dd:93:f8:30:e0:fe:1c:9a:19:9b:d0:90:7a:c6:46:f7:85:c3:
         d1:87:3e:e9:2f:cf:38:ed:70:dc:fd:15:fe:a1:16:13:0e:96:
         ad:39:75:b8:24:e0:7f:28:0d:ab:68:cc:ed:70:e4:a3:50:00:
         34:0d:3a:1f:d4:db:8f:b2:21:1c:86:43:f6:75:49:55:f1:0f:
         b9:54:4e:b2:92:06:e3:93:87:fe:a7:f5:95:de:1a:a3:08:b8:
         bb:86:2d:ff:2a:57:f9:fb:c9:18:6a:d2:1f:6a:b1:d4:d6:05:
         37:66:56:b7:54:43:80:8e:14:0a:3e:4e:4d:43:97:97:02:8b:
         14:c7:f0:aa:9e:1c:1b:89:0b:f6:b3:8a:0b:90:2c:bd:1a:42:
         6f:0b:87:b7:18:ce:31:5e:e4:2a:ea:73:12:06:22:5d:66:47:
         e5:b0:d5:f6:ee:78:6c:b2:22:c3:fc:da:f6:6c:27:9f:0b:56:
         b8:32:6a:dc:ef:e6:37:8e:b7:9a:a2:0d:90:38:94:69:54:56:
         6e:11:ce:11:a5:71:e4:47:03:e2:6d:0f:70:c4:1f:14:ec:8b:
         ab:98:14:5b:43:fc:6f:d3:cc:99:a0:c5:69:89:a8:18:76:9f:
         cd:e8:4b:b6:28:9b:0e:57:f4:7d:50:5f:04:b8:62:54:d0:66:
         7e:ff:6e:29:24:ab:89:6e:1d:a0:5e:1b:eb:ac:d9:02:13:b0:
         ab:e8:5e:1d:bf:9c:5d:b5:75:0a:20:0a:a2:f6:d4:89:6e:af:
         86:a7:76:f3:44:43:86:8c:43:3b:12:b9:42:df:43:75:fa:c7:
         dd:ee:8a:2e:35:a2:79:db:60:e5:69:cd:09:08:59:2c:72:d6:
         6b:f5:6d:f2:58:38:72:c8:06:e5:dd:4d:86:06:a4:69:e7:86:
         2e:e3:f3:58:cc:f2:f0:b6:53:9f:57:1f:84:8c:b2:c9:9d:0e:
         58:d6:37:6a:a4:2b:93:79
-----BEGIN CERTIFICATE-----
MIIEbTCCAlWgAwIBAgIBDDANBgkqhkiG9w0BAQsFADCBgTELMAkGA1UEBhMCTkwx
EzARBgNVBAgTCkdlbGRlcmxhbmQxDzANBgNVBAcTBkFybmhlbTENMAsGA1UEChME
T1NHUDENMAsGA1UECxMET1NHUDENMAsGA1UEAxMET1NHUDEfMB0GCSqGSIb3DQEJ
ARYQYWRkcmVzc0BPU0dQLmNvbTAeFw0xOTA5MDMwODE0NTdaFw0yNTA0MDEwODE0
NTdaMB8xHTAbBgNVBAMMFExpYW5kZXJOZXRNYW5hZ2VtZW50MIIBIjANBgkqhkiG
9w0BAQEFAAOCAQ8AMIIBCgKCAQEArA23Gb5UqInY1STdj0BGxzAItshoaFKY11db
dS9obQ2U9OUWQr/dVIy5f5GbK7Y2AtANkvraV4JT2ESnd/uui1X5SiRS1I2FJMKt
yFMLucdv4xRN6FRdrQfwama2lhposSy5rvhITqWG7/AwCXQ31aFRWpkHLK9DRT3p
lG/QKdmr7acYa1YeUqjxqvQ0XWUWPScGvZE5xxa9Vgb4BsGCiGdxtPegcAkbs32b
Qg0e2PPAqMo316TuFFk1caqAbyb/x80EF8p43krWyqPmu2x2FG3OkPFP+LzFltra
nbkDA26SP67/4QSCZPsRVhGCOdbBg01vgwLWDV8P3t8KxSpZ8wIDAQABo1EwTzAJ
BgNVHRMEAjAAMA4GA1UdDwEB/wQEAwIE8DATBgNVHSUEDDAKBggrBgEFBQcDAjAd
BgNVHQ4EFgQUqHHKxlcRL4OcFHdump53Wg3sjikwDQYJKoZIhvcNAQELBQADggIB
AGX7zyAg+/Kk5jieQmwlDWCX2HRLld2lbvc5/3iS00aXd0MPxEFM8SarhL4vwXpL
NFlB85rTTrfQg8feDBG45VIjblySRuhrN9Kmck9JROdkCVpYez8GuFnWn0pslK55
PbAnyzifVYZJVAZPPkXJmNl2/gSfXANFAch7z9U1gxXw7K5uWECIizYl5oRmbGbu
CN2T+DDg/hyaGZvQkHrGRveFw9GHPukvzzjtcNz9Ff6hFhMOlq05dbgk4H8oDato
zO1w5KNQADQNOh/U24+yIRyGQ/Z1SVXxD7lUTrKSBuOTh/6n9ZXeGqMIuLuGLf8q
V/n7yRhq0h9qsdTWBTdmVrdUQ4COFAo+Tk1Dl5cCixTH8KqeHBuJC/aziguQLL0a
Qm8Lh7cYzjFe5CrqcxIGIl1mR+Ww1fbueGyyIsP82vZsJ58LVrgyatzv5jeOt5qi
DZA4lGlUVm4RzhGlceRHA+JtD3DEHxTsi6uYFFtD/G/TzJmgxWmJqBh2n83oS7Yo
mw5X9H1QXwS4YlTQZn7/bikkq4luHaBeG+us2QITsKvoXh2/nF21dQogCqL21Ilu
r4andvNEQ4aMQzsSuULfQ3X6x93uii41onnbYOVpzQkIWSxy1mv1bfJYOHLIBuXd
TYYGpGnnhi7j81jM8vC2U59XH4SMssmdDljWN2qkK5N5
-----END CERTIFICATE-----
