Certificate:
    Data:
        Version: 3 (0x2)
        Serial Number: 13 (0xd)
    Signature Algorithm: sha256WithRSAEncryption
        Issuer: C=NL, ST=Gelderland, L=Arnhem, O=OSGP, OU=OSGP, CN=OSGP/emailAddress=address@OSGP.com
        Validity
            Not Before: Sep  3 08:15:08 2019 GMT
            Not After : Apr  1 08:15:08 2025 GMT
        Subject: CN=OSGP
        Subject Public Key Info:
            Public Key Algorithm: rsaEncryption
                Public-Key: (2048 bit)
                Modulus:
                    00:d0:0b:dd:b6:d3:6b:01:56:ba:bd:15:4e:6e:ed:
                    d6:9a:d7:bc:3c:09:a8:46:1e:c8:13:c5:3f:cf:ec:
                    25:a2:45:eb:59:41:0e:88:00:12:15:4d:3a:f8:95:
                    f6:78:47:3a:f4:84:fa:ef:56:e0:a2:b8:df:f9:c2:
                    ac:48:87:1f:db:55:71:12:0e:7e:22:dc:1c:f5:17:
                    57:72:4d:60:d8:d2:2e:46:11:5b:08:fc:a1:ca:ac:
                    12:42:64:c9:09:85:2e:c8:27:20:ed:f7:38:ee:26:
                    61:d1:ef:5e:03:ba:b8:54:93:61:2f:37:bc:68:dd:
                    60:b9:dc:21:97:de:7f:87:af:a0:54:bb:75:ea:12:
                    59:f6:51:7f:fe:5c:f6:05:e3:2f:ea:ce:76:b1:d7:
                    c4:f3:66:8a:ce:0a:68:d9:b2:a6:5c:27:22:f2:87:
                    15:33:a3:f5:dd:0b:02:ea:e4:09:af:0b:f4:96:9f:
                    a5:37:14:ed:6d:97:94:af:72:14:c7:32:ab:f0:8c:
                    91:e1:c6:c7:5e:98:a0:db:f5:ea:ad:ba:29:ed:f7:
                    66:7d:78:cb:2a:07:1c:83:60:01:2d:42:83:cb:92:
                    d3:0e:12:16:63:07:fc:08:4d:2e:d7:c8:06:28:74:
                    da:d1:94:a7:eb:9e:14:9e:63:e8:5e:24:33:b9:e7:
                    01:05
                Exponent: 65537 (0x10001)
        X509v3 extensions:
            X509v3 Basic Constraints: 
                CA:FALSE
            X509v3 Key Usage: critical
                Digital Signature, Non Repudiation, Key Encipherment, Data Encipherment
            X509v3 Extended Key Usage: 
                TLS Web Client Authentication
            X509v3 Subject Key Identifier: 
                56:3B:52:F7:50:68:89:34:E2:36:9A:65:D8:A3:39:A8:B0:99:E7:FF
    Signature Algorithm: sha256WithRSAEncryption
         d1:8b:5c:02:f9:5d:5d:ff:aa:b0:d6:e0:35:30:4f:6b:80:5e:
         44:7f:b4:f1:d9:2a:94:32:54:2f:32:d0:23:80:6c:40:94:b9:
         99:72:0e:63:6f:e3:48:eb:d2:18:52:f3:51:85:cd:6b:af:85:
         39:94:4c:d3:af:7f:78:14:a4:3c:80:11:ab:13:c9:25:6f:86:
         af:fa:33:75:43:c3:4e:81:54:5b:eb:92:67:71:ec:b4:3c:43:
         54:8e:6c:ea:99:b3:64:7e:6e:42:1b:90:c8:83:71:0f:1b:8f:
         e7:cf:46:f5:1a:61:03:e6:9c:2b:a8:76:22:9b:2a:e5:2f:5c:
         37:12:43:3f:09:ee:b5:4a:60:ae:e1:23:27:31:05:05:26:da:
         a0:8f:ec:b6:ce:4e:fe:65:28:f2:7d:3a:63:94:2a:66:cc:4b:
         96:c7:ab:91:64:9b:4a:69:06:6f:9f:8e:37:d1:bb:b8:3d:01:
         6a:da:3d:67:05:30:db:36:a7:22:57:d5:d5:ba:65:3d:8d:ce:
         45:aa:0a:b4:48:88:09:0e:71:ec:ba:ec:f8:74:a7:a2:ec:8c:
         23:63:b3:dd:62:74:35:38:4a:7c:b0:87:8a:93:b5:31:e5:c9:
         62:84:f5:9f:57:b0:fc:c6:27:9e:74:ba:da:d0:36:43:70:73:
         a3:ea:eb:f1:6a:f8:1b:2a:b4:9d:20:d0:b8:6e:3c:e8:14:0f:
         25:4a:a3:e1:ea:a1:30:ff:8c:bb:7a:ed:35:84:d8:af:f1:df:
         af:77:0a:64:80:4f:56:9c:3d:d4:0b:fc:ad:ce:89:a0:2c:5c:
         71:9e:34:bb:53:6a:6e:5f:24:5a:63:c1:5d:8c:5c:c4:fc:c9:
         a4:fb:e7:f2:b7:55:be:f4:8d:ce:20:de:8b:46:14:7b:cd:92:
         05:5f:61:36:c3:1f:d9:8c:1f:e9:f1:5c:7c:43:0e:ef:74:1b:
         3f:64:67:73:ff:f8:c2:4d:12:b2:a4:fa:46:95:5c:48:7a:35:
         b6:6b:7c:fe:ff:bc:11:d3:2c:09:55:07:9a:58:f4:1d:8f:03:
         45:f1:8f:3f:f9:34:c9:28:0a:d3:a5:69:eb:9a:7d:7a:23:00:
         eb:59:8e:09:b4:28:e8:f9:e9:83:02:a5:dd:1f:dc:55:9f:77:
         25:7c:56:ee:d6:8a:06:8b:76:a1:0b:48:a4:c7:f6:3a:17:eb:
         2f:23:eb:bf:43:5b:e3:c6:00:29:65:13:1e:7e:2e:2a:3b:c5:
         2b:69:36:43:be:69:86:fe:0e:f9:85:20:8a:14:39:e7:c6:ae:
         39:2d:8e:d3:0d:50:0e:eb:bb:7f:58:b7:67:76:13:2f:a6:59:
         f9:b5:b9:b1:d9:43:3f:01
-----BEGIN CERTIFICATE-----
MIIEXTCCAkWgAwIBAgIBDTANBgkqhkiG9w0BAQsFADCBgTELMAkGA1UEBhMCTkwx
EzARBgNVBAgTCkdlbGRlcmxhbmQxDzANBgNVBAcTBkFybmhlbTENMAsGA1UEChME
T1NHUDENMAsGA1UECxMET1NHUDENMAsGA1UEAxMET1NHUDEfMB0GCSqGSIb3DQEJ
ARYQYWRkcmVzc0BPU0dQLmNvbTAeFw0xOTA5MDMwODE1MDhaFw0yNTA0MDEwODE1
MDhaMA8xDTALBgNVBAMMBE9TR1AwggEiMA0GCSqGSIb3DQEBAQUAA4IBDwAwggEK
AoIBAQDQC92202sBVrq9FU5u7daa17w8CahGHsgTxT/P7CWiRetZQQ6IABIVTTr4
lfZ4Rzr0hPrvVuCiuN/5wqxIhx/bVXESDn4i3Bz1F1dyTWDY0i5GEVsI/KHKrBJC
ZMkJhS7IJyDt9zjuJmHR714DurhUk2EvN7xo3WC53CGX3n+Hr6BUu3XqEln2UX/+
XPYF4y/qznax18TzZorOCmjZsqZcJyLyhxUzo/XdCwLq5AmvC/SWn6U3FO1tl5Sv
chTHMqvwjJHhxsdemKDb9eqtuint92Z9eMsqBxyDYAEtQoPLktMOEhZjB/wITS7X
yAYodNrRlKfrnhSeY+heJDO55wEFAgMBAAGjUTBPMAkGA1UdEwQCMAAwDgYDVR0P
AQH/BAQDAgTwMBMGA1UdJQQMMAoGCCsGAQUFBwMCMB0GA1UdDgQWBBRWO1L3UGiJ
NOI2mmXYozmosJnn/zANBgkqhkiG9w0BAQsFAAOCAgEA0YtcAvldXf+qsNbgNTBP
a4BeRH+08dkqlDJULzLQI4BsQJS5mXIOY2/jSOvSGFLzUYXNa6+FOZRM069/eBSk
PIARqxPJJW+Gr/ozdUPDToFUW+uSZ3HstDxDVI5s6pmzZH5uQhuQyINxDxuP589G
9RphA+acK6h2Ipsq5S9cNxJDPwnutUpgruEjJzEFBSbaoI/sts5O/mUo8n06Y5Qq
ZsxLlserkWSbSmkGb5+ON9G7uD0Bato9ZwUw2zanIlfV1bplPY3ORaoKtEiICQ5x
7Lrs+HSnouyMI2Oz3WJ0NThKfLCHipO1MeXJYoT1n1ew/MYnnnS62tA2Q3Bzo+rr
8Wr4Gyq0nSDQuG486BQPJUqj4eqhMP+Mu3rtNYTYr/Hfr3cKZIBPVpw91Av8rc6J
oCxccZ40u1Nqbl8kWmPBXYxcxPzJpPvn8rdVvvSNziDei0YUe82SBV9hNsMf2Ywf
6fFcfEMO73QbP2Rnc//4wk0SsqT6RpVcSHo1tmt8/v+8EdMsCVUHmlj0HY8DRfGP
P/k0ySgK06Vp65p9eiMA61mOCbQo6PnpgwKl3R/cVZ93JXxW7taKBot2oQtIpMf2
OhfrLyPrv0Nb48YAKWUTHn4uKjvFK2k2Q75phv4O+YUgihQ558auOS2O0w1QDuu7
f1i3Z3YTL6ZZ+bW5sdlDPwE=
-----END CERTIFICATE-----
