Certificate:
    Data:
        Version: 3 (0x2)
        Serial Number: 14 (0xe)
    Signature Algorithm: sha256WithRSAEncryption
        Issuer: C=NL, ST=Gelderland, L=Arnhem, O=OSGP, OU=OSGP, CN=OSGP/emailAddress=address@OSGP.com
        Validity
            Not Before: Sep  3 08:15:16 2019 GMT
            Not After : Apr  1 08:15:16 2025 GMT
        Subject: CN=test-org
        Subject Public Key Info:
            Public Key Algorithm: rsaEncryption
                Public-Key: (2048 bit)
                Modulus:
                    00:b9:69:ec:02:f6:17:bf:ce:b4:16:5a:72:a8:90:
                    08:ab:87:e4:60:a5:da:9e:2e:ea:79:ce:44:75:98:
                    44:6d:79:56:40:18:a6:a2:51:66:60:a3:fd:8e:84:
                    8a:38:65:e3:8c:08:4e:b4:38:b3:9f:d1:59:10:89:
                    a1:30:f1:01:df:60:cb:e6:3b:27:b0:99:8c:35:b1:
                    52:db:8c:8b:b2:c3:e7:e4:3b:fe:19:3d:ca:b2:39:
                    35:61:72:f7:b9:9b:de:f3:81:b9:89:ac:3e:90:6e:
                    08:3b:df:c6:b6:94:e9:f7:26:e1:84:2c:4f:f1:44:
                    62:0d:c4:cf:51:f0:79:40:b1:2c:6c:c3:fb:5d:d5:
                    15:43:cf:58:b7:bd:76:54:07:80:44:88:1c:8e:b3:
                    ce:f3:65:ac:83:95:ca:63:f2:b1:76:90:08:ef:15:
                    88:73:95:8f:92:f6:91:59:45:7a:eb:eb:f6:07:b3:
                    80:42:eb:29:56:f8:13:1f:a9:ae:16:7d:7f:5e:e0:
                    f0:2a:d6:22:90:d9:3e:34:b0:36:42:7f:9a:f0:96:
                    cf:11:5d:67:4d:2a:bc:93:5e:a4:02:d2:28:30:11:
                    fc:3d:26:78:4a:71:2a:3c:6c:15:e5:39:5a:9f:18:
                    b9:01:98:c2:96:86:fc:ec:fe:fb:01:99:a0:94:67:
                    99:53
                Exponent: 65537 (0x10001)
        X509v3 extensions:
            X509v3 Basic Constraints: 
                CA:FALSE
            X509v3 Key Usage: critical
                Digital Signature, Non Repudiation, Key Encipherment, Data Encipherment
            X509v3 Extended Key Usage: 
                TLS Web Client Authentication
            X509v3 Subject Key Identifier: 
                ED:CB:9E:C5:AE:D7:20:48:86:8B:EA:F0:10:B0:DB:CD:DD:99:51:2C
    Signature Algorithm: sha256WithRSAEncryption
         2d:a6:06:a2:db:7f:68:d4:9b:d1:36:9e:25:93:16:6e:68:15:
         0e:4f:36:14:9e:cc:cb:b2:a8:25:78:ad:98:1c:7c:57:8a:b7:
         b3:91:a3:6f:b8:9e:e0:ff:42:90:c0:51:98:ba:a3:5a:37:5c:
         dc:4b:ff:39:00:5c:db:e9:e3:3c:b2:36:3d:c6:b3:d6:c2:03:
         14:a0:ab:1d:ac:3c:4a:c9:35:21:29:44:44:fa:b6:7e:2b:7b:
         70:71:df:90:04:28:19:1e:62:b9:06:3c:c6:9b:4b:bd:8b:55:
         eb:56:b5:66:a3:b8:06:ce:92:6d:fa:24:73:b2:91:08:37:93:
         85:ce:5e:fe:66:ff:0d:18:76:cc:5b:fe:75:90:50:6d:84:6b:
         e0:3b:13:8b:3c:d2:01:8b:39:8b:6a:ce:69:e3:e3:e3:0c:72:
         2b:68:11:09:6a:5a:99:6d:eb:bf:55:22:4b:14:b4:bb:55:4c:
         f4:f2:9a:ae:d9:ae:39:ff:95:1d:10:d0:87:04:0e:e7:f6:6b:
         a5:13:c9:d8:65:27:7b:cb:39:ca:0f:95:17:83:6c:5f:c3:49:
         4e:09:b1:80:45:17:3f:06:40:13:12:cd:47:bd:4a:16:89:d7:
         ba:3a:e0:04:32:fe:16:13:31:56:9e:54:0d:ac:67:0b:91:79:
         a5:49:d4:66:8d:e3:62:2d:55:cb:d7:98:bf:01:75:dc:9e:5d:
         a9:e1:fa:e0:9e:04:2b:53:12:bf:9f:7d:c0:88:0b:ec:70:e8:
         cf:2c:84:51:1b:07:23:dd:81:9d:e7:c2:6f:6e:dd:b9:2b:38:
         3f:b3:ea:bc:b0:cb:9b:9f:47:5f:27:fc:aa:93:5f:a7:56:73:
         4e:e9:6d:e7:88:e0:cd:f5:a3:a4:5a:6d:53:1f:bd:f0:05:0a:
         2d:52:7e:c7:f2:5a:06:56:c4:54:dd:d1:64:c9:27:fc:f5:55:
         ff:52:82:0c:4c:0c:09:af:f9:c6:db:bb:8e:c6:14:08:2f:0a:
         f8:ec:f4:38:e0:0d:e2:cc:da:70:2d:ff:eb:27:7d:70:e5:71:
         da:4e:98:b0:63:61:b0:a4:fc:fb:bd:d8:67:ba:13:15:05:16:
         eb:73:af:eb:06:7f:12:cb:28:d6:7a:0b:2b:01:f8:b4:4e:58:
         3a:d2:1a:a0:f4:fe:41:73:2e:4a:58:10:1f:c9:ff:fd:66:39:
         5a:a6:ff:c1:96:a3:78:23:cd:16:c6:4c:b0:a7:3b:dd:a8:55:
         a0:29:66:f6:db:79:08:27:df:4a:0d:9a:63:60:2f:1d:02:b3:
         18:c0:05:ef:66:c4:70:8c:10:57:18:7a:61:93:50:3d:1d:2e:
         2a:5c:20:ba:a7:30:ed:b7
-----BEGIN CERTIFICATE-----
MIIEYTCCAkmgAwIBAgIBDjANBgkqhkiG9w0BAQsFADCBgTELMAkGA1UEBhMCTkwx
EzARBgNVBAgTCkdlbGRlcmxhbmQxDzANBgNVBAcTBkFybmhlbTENMAsGA1UEChME
T1NHUDENMAsGA1UECxMET1NHUDENMAsGA1UEAxMET1NHUDEfMB0GCSqGSIb3DQEJ
ARYQYWRkcmVzc0BPU0dQLmNvbTAeFw0xOTA5MDMwODE1MTZaFw0yNTA0MDEwODE1
MTZaMBMxETAPBgNVBAMMCHRlc3Qtb3JnMIIBIjANBgkqhkiG9w0BAQEFAAOCAQ8A
MIIBCgKCAQEAuWnsAvYXv860FlpyqJAIq4fkYKXani7qec5EdZhEbXlWQBimolFm
YKP9joSKOGXjjAhOtDizn9FZEImhMPEB32DL5jsnsJmMNbFS24yLssPn5Dv+GT3K
sjk1YXL3uZve84G5iaw+kG4IO9/GtpTp9ybhhCxP8URiDcTPUfB5QLEsbMP7XdUV
Q89Yt712VAeARIgcjrPO82Wsg5XKY/KxdpAI7xWIc5WPkvaRWUV66+v2B7OAQusp
VvgTH6muFn1/XuDwKtYikNk+NLA2Qn+a8JbPEV1nTSq8k16kAtIoMBH8PSZ4SnEq
PGwV5Tlanxi5AZjClob87P77AZmglGeZUwIDAQABo1EwTzAJBgNVHRMEAjAAMA4G
A1UdDwEB/wQEAwIE8DATBgNVHSUEDDAKBggrBgEFBQcDAjAdBgNVHQ4EFgQU7cue
xa7XIEiGi+rwELDbzd2ZUSwwDQYJKoZIhvcNAQELBQADggIBAC2mBqLbf2jUm9E2
niWTFm5oFQ5PNhSezMuyqCV4rZgcfFeKt7ORo2+4nuD/QpDAUZi6o1o3XNxL/zkA
XNvp4zyyNj3Gs9bCAxSgqx2sPErJNSEpRET6tn4re3Bx35AEKBkeYrkGPMabS72L
VetWtWajuAbOkm36JHOykQg3k4XOXv5m/w0Ydsxb/nWQUG2Ea+A7E4s80gGLOYtq
zmnj4+MMcitoEQlqWplt679VIksUtLtVTPTymq7Zrjn/lR0Q0IcEDuf2a6UTydhl
J3vLOcoPlReDbF/DSU4JsYBFFz8GQBMSzUe9ShaJ17o64AQy/hYTMVaeVA2sZwuR
eaVJ1GaN42ItVcvXmL8BddyeXanh+uCeBCtTEr+ffcCIC+xw6M8shFEbByPdgZ3n
wm9u3bkrOD+z6rywy5ufR18n/KqTX6dWc07pbeeI4M31o6RabVMfvfAFCi1Sfsfy
WgZWxFTd0WTJJ/z1Vf9SggxMDAmv+cbbu47GFAgvCvjs9DjgDeLM2nAt/+snfXDl
cdpOmLBjYbCk/Pu92Ge6ExUFFutzr+sGfxLLKNZ6CysB+LROWDrSGqD0/kFzLkpY
EB/J//1mOVqm/8GWo3gjzRbGTLCnO92oVaApZvbbeQgn30oNmmNgLx0CsxjABe9m
xHCMEFcYemGTUD0dLipcILqnMO23
-----END CERTIFICATE-----
