Certificate:
    Data:
        Version: 3 (0x2)
        Serial Number: 15 (0xf)
    Signature Algorithm: sha256WithRSAEncryption
        Issuer: C=NL, ST=Gelderland, L=Arnhem, O=OSGP, OU=OSGP, CN=OSGP/emailAddress=address@OSGP.com
        Validity
            Not Before: Sep  3 08:15:27 2019 GMT
            Not After : Apr  1 08:15:27 2025 GMT
        Subject: CN=unknown-organization
        Subject Public Key Info:
            Public Key Algorithm: rsaEncryption
                Public-Key: (2048 bit)
                Modulus:
                    00:e6:2a:55:82:5b:d6:ca:94:18:1e:c6:59:a9:c7:
                    e3:86:eb:91:7f:e1:ce:af:5a:cf:17:2c:25:b1:18:
                    ca:f1:ec:30:c1:a0:b6:6f:a7:24:ad:97:f8:6a:ef:
                    78:54:39:e8:e7:6d:ed:4b:6d:48:89:55:f9:e3:31:
                    7d:6f:3e:04:8a:28:b3:0e:cd:f3:b9:2c:27:c0:f5:
                    70:aa:6a:6b:5b:db:6a:6a:b4:d4:00:f6:14:d5:b9:
                    8d:30:d3:99:66:bf:c7:81:49:8d:b1:0e:26:76:b1:
                    d8:44:fe:1f:02:f7:77:91:16:20:a1:e8:2c:eb:17:
                    08:d6:0a:a1:d3:17:0d:c6:2c:e4:09:c6:7a:1a:5c:
                    29:95:d0:13:a5:92:37:62:cd:44:09:67:d3:7d:cd:
                    eb:70:2e:c5:63:8d:ad:0b:df:8a:0e:93:44:10:90:
                    88:bf:96:14:dd:cf:c2:f6:6c:2a:df:e1:75:bc:24:
                    87:d6:7e:c5:fa:6b:4f:bf:2a:fe:38:82:90:ae:ce:
                    c3:ca:84:63:43:9c:8f:d4:0b:13:6a:59:ea:3c:ad:
                    e9:ca:fd:a2:5d:d9:75:4e:6e:93:ec:c9:c4:8d:e4:
                    29:30:ac:29:5f:46:31:4b:81:b5:ba:a3:ce:5f:0c:
                    4a:bf:98:f3:95:91:b7:b7:a5:b6:b9:b5:42:81:6d:
                    a2:3d
                Exponent: 65537 (0x10001)
        X509v3 extensions:
            X509v3 Basic Constraints: 
                CA:FALSE
            X509v3 Key Usage: critical
                Digital Signature, Non Repudiation, Key Encipherment, Data Encipherment
            X509v3 Extended Key Usage: 
                TLS Web Client Authentication
            X509v3 Subject Key Identifier: 
                D8:A2:9A:63:C0:57:64:07:B8:56:46:5D:3C:F9:FD:73:13:79:17:E6
    Signature Algorithm: sha256WithRSAEncryption
         24:4e:0c:44:07:d7:9f:ac:96:38:5e:8c:84:2b:88:a0:fa:0f:
         f2:22:a3:6d:a1:bf:8d:17:c4:e7:ec:0f:e9:7e:65:4f:6b:62:
         5d:3b:87:a5:ec:6f:21:d7:b6:15:ca:74:7f:fb:eb:56:79:7a:
         8b:2b:73:5c:b8:bf:85:ad:75:94:b1:98:80:cd:ba:48:29:53:
         af:cc:40:77:fe:b6:ca:01:7e:06:3c:64:d9:76:16:e6:9e:40:
         4e:4d:95:62:b4:e5:7e:9e:fe:d4:ef:70:1e:55:b2:34:e7:1d:
         19:05:1b:6b:66:7f:6e:45:2b:8e:5e:26:c1:b7:49:ff:38:4a:
         ca:c8:bc:26:10:af:08:61:df:06:c8:80:75:d1:a8:e2:ed:ad:
         9d:ab:2d:28:a6:fa:33:56:ae:99:c7:18:87:b9:b8:a9:a3:ca:
         fa:d9:9c:d9:0b:6a:42:e1:4c:05:2e:31:75:ac:a6:95:55:50:
         85:0f:c0:9d:12:e6:f8:a2:fa:3e:de:82:57:ba:84:12:55:c9:
         e9:fc:05:5b:34:80:04:8f:f0:f8:1f:a7:e6:bf:39:50:c6:d1:
         17:b3:1c:9f:b0:f7:88:ce:ad:10:0a:78:34:7e:55:7e:8d:75:
         f4:ca:07:50:b8:fe:e8:56:00:df:ed:84:03:5e:5e:5f:8c:70:
         b3:f2:a8:19:1e:83:7f:c3:23:67:e1:7f:f8:c1:bc:b0:e7:36:
         88:ea:14:5c:f3:e0:c7:04:9e:f7:3d:a7:db:42:45:09:b3:49:
         15:c7:c3:e4:6d:0a:1d:49:bc:03:6b:22:55:dc:bc:2a:db:30:
         b3:14:78:8d:35:62:a8:a2:1c:6d:c3:d1:e8:04:16:0e:c0:75:
         ff:a5:54:62:8d:91:2d:45:b1:d9:4a:c3:72:ab:80:2c:99:25:
         72:0a:d5:16:57:9a:fb:06:dd:b2:bc:2e:95:0a:57:6f:d4:6d:
         ca:81:0d:e2:05:dc:3a:0f:2f:c1:48:c6:67:e1:79:5a:3e:57:
         2d:d3:5c:84:17:48:4b:05:6f:40:ba:bd:6f:03:1f:7f:7f:0b:
         0a:3a:85:88:a1:58:3e:f7:2e:b6:cf:86:87:c2:be:12:29:1b:
         c0:7d:a3:4e:19:78:4f:45:a7:bb:95:53:01:ea:b8:20:ed:b3:
         97:46:af:36:af:36:e4:dc:37:4c:ce:27:0d:51:e9:cf:59:ef:
         da:af:40:7b:5e:06:98:d3:d5:86:68:82:00:dc:0d:61:9c:e8:
         9a:4e:07:b4:66:b1:b4:53:84:30:c2:53:04:32:07:d5:c4:8a:
         34:83:16:ae:e9:62:47:7f:f3:94:0f:57:ee:5a:61:3e:1e:1a:
         22:7f:79:9f:d9:82:f2:60
-----BEGIN CERTIFICATE-----
MIIEbTCCAlWgAwIBAgIBDzANBgkqhkiG9w0BAQsFADCBgTELMAkGA1UEBhMCTkwx
EzARBgNVBAgTCkdlbGRlcmxhbmQxDzANBgNVBAcTBkFybmhlbTENMAsGA1UEChME
T1NHUDENMAsGA1UECxMET1NHUDENMAsGA1UEAxMET1NHUDEfMB0GCSqGSIb3DQEJ
ARYQYWRkcmVzc0BPU0dQLmNvbTAeFw0xOTA5MDMwODE1MjdaFw0yNTA0MDEwODE1
MjdaMB8xHTAbBgNVBAMMFHVua25vd24tb3JnYW5pemF0aW9uMIIBIjANBgkqhkiG
9w0BAQEFAAOCAQ8AMIIBCgKCAQEA5ipVglvWypQYHsZZqcfjhuuRf+HOr1rPFywl
sRjK8ewwwaC2b6ckrZf4au94VDno523tS21IiVX54zF9bz4EiiizDs3zuSwnwPVw
qmprW9tqarTUAPYU1bmNMNOZZr/HgUmNsQ4mdrHYRP4fAvd3kRYgoegs6xcI1gqh
0xcNxizkCcZ6GlwpldATpZI3Ys1ECWfTfc3rcC7FY42tC9+KDpNEEJCIv5YU3c/C
9mwq3+F1vCSH1n7F+mtPvyr+OIKQrs7DyoRjQ5yP1AsTalnqPK3pyv2iXdl1Tm6T
7MnEjeQpMKwpX0YxS4G1uqPOXwxKv5jzlZG3t6W2ubVCgW2iPQIDAQABo1EwTzAJ
BgNVHRMEAjAAMA4GA1UdDwEB/wQEAwIE8DATBgNVHSUEDDAKBggrBgEFBQcDAjAd
BgNVHQ4EFgQU2KKaY8BXZAe4VkZdPPn9cxN5F+YwDQYJKoZIhvcNAQELBQADggIB
ACRODEQH15+sljhejIQriKD6D/Iio22hv40XxOfsD+l+ZU9rYl07h6XsbyHXthXK
dH/761Z5eosrc1y4v4WtdZSxmIDNukgpU6/MQHf+tsoBfgY8ZNl2FuaeQE5NlWK0
5X6e/tTvcB5VsjTnHRkFG2tmf25FK45eJsG3Sf84SsrIvCYQrwhh3wbIgHXRqOLt
rZ2rLSim+jNWrpnHGIe5uKmjyvrZnNkLakLhTAUuMXWsppVVUIUPwJ0S5vii+j7e
gle6hBJVyen8BVs0gASP8Pgfp+a/OVDG0RezHJ+w94jOrRAKeDR+VX6NdfTKB1C4
/uhWAN/thANeXl+McLPyqBkeg3/DI2fhf/jBvLDnNojqFFzz4McEnvc9p9tCRQmz
SRXHw+RtCh1JvANrIlXcvCrbMLMUeI01YqiiHG3D0egEFg7Adf+lVGKNkS1FsdlK
w3KrgCyZJXIK1RZXmvsG3bK8LpUKV2/UbcqBDeIF3DoPL8FIxmfheVo+Vy3TXIQX
SEsFb0C6vW8DH39/Cwo6hYihWD73LrbPhofCvhIpG8B9o04ZeE9Fp7uVUwHquCDt
s5dGrzavNuTcN0zOJw1R6c9Z79qvQHteBpjT1YZoggDcDWGc6JpOB7RmsbRThDDC
UwQyB9XEijSDFq7pYkd/85QPV+5aYT4eGiJ/eZ/ZgvJg
-----END CERTIFICATE-----
