Certificate:
    Data:
        Version: 3 (0x2)
        Serial Number: 16 (0x10)
    Signature Algorithm: sha256WithRSAEncryption
        Issuer: C=NL, ST=Gelderland, L=Arnhem, O=OSGP, OU=OSGP, CN=OSGP/emailAddress=address@OSGP.com
        Validity
            Not Before: Sep  3 08:15:35 2019 GMT
            Not After : Apr  1 08:15:35 2025 GMT
        Subject: CN=ZownStream
        Subject Public Key Info:
            Public Key Algorithm: rsaEncryption
                Public-Key: (2048 bit)
                Modulus:
                    00:9e:23:91:eb:06:81:61:a1:8c:3e:02:07:3c:34:
                    6f:bd:9a:5c:8d:3c:f2:34:bf:54:f2:1b:c1:57:60:
                    e7:4b:13:82:49:07:8f:d7:65:47:49:35:a8:65:d8:
                    15:dd:9b:80:ff:05:4a:8e:fe:2c:5e:af:ce:bb:df:
                    1b:0a:92:ff:e5:52:ad:5e:11:5a:5f:58:1f:62:68:
                    5d:a8:d8:5e:6b:c9:ea:79:ca:f7:e3:f2:37:eb:fa:
                    fb:a9:b2:1f:a8:c0:c7:06:66:fc:f9:89:3a:a4:56:
                    f1:9e:b6:b2:41:2b:c7:11:cf:61:57:4d:c3:ce:74:
                    7d:34:f6:27:27:12:56:65:3f:ae:ab:9e:b1:fc:27:
                    f5:05:8f:47:13:55:c1:63:cc:46:04:be:8e:d6:2f:
                    eb:e2:fb:78:21:5a:c9:43:33:9a:45:48:12:e3:07:
                    ed:a9:95:6d:24:54:34:3b:04:7e:9e:28:de:6a:05:
                    e4:f4:4a:5d:73:94:fd:7b:6d:af:ec:eb:d2:9d:08:
                    e1:6c:38:38:91:7b:06:76:c7:fd:a0:4d:d8:27:4e:
                    42:cf:45:ef:57:4b:39:ae:62:93:f9:89:bf:86:a7:
                    c3:86:58:cd:e2:d7:6f:69:60:30:33:c5:ab:19:8c:
                    60:14:7a:79:69:ca:22:0f:9b:29:57:dc:76:8c:00:
                    56:2f
                Exponent: 65537 (0x10001)
        X509v3 extensions:
            X509v3 Basic Constraints: 
                CA:FALSE
            X509v3 Key Usage: critical
                Digital Signature, Non Repudiation, Key Encipherment, Data Encipherment
            X509v3 Extended Key Usage: 
                TLS Web Client Authentication
            X509v3 Subject Key Identifier: 
                5F:37:CE:10:AB:75:DF:95:0E:23:34:CE:FF:52:DF:24:55:E0:82:65
    Signature Algorithm: sha256WithRSAEncryption
         7e:70:ce:d1:a7:20:7e:50:75:38:8a:7d:2e:f8:68:12:4d:3c:
         b9:07:c7:de:fd:e1:10:63:1f:24:14:4a:ea:02:05:67:28:d7:
         95:c9:7d:d8:5d:8d:4a:af:b3:05:e7:12:b9:b8:81:8e:df:97:
         96:17:4e:50:da:e9:b9:56:40:22:ef:ba:9d:0c:a4:86:46:61:
         e2:96:a0:d9:04:c8:63:b0:7b:2b:99:1f:d3:36:9d:48:11:de:
         ef:7d:d5:97:b7:47:65:e7:19:ec:7e:4f:40:93:0c:c7:d0:5d:
         8d:a5:0d:57:f1:50:2b:04:c9:5c:87:75:24:c2:4d:8a:b6:94:
         08:7e:2a:d6:7c:fb:02:2f:3b:77:e9:48:04:de:fa:0d:10:5a:
         27:36:7f:c7:99:c9:72:80:f2:e9:78:63:f9:fa:3d:6a:f8:14:
         29:2a:84:bd:db:0c:2f:2b:eb:b1:07:f9:39:02:19:4c:68:19:
         d6:7a:df:31:19:f2:e6:9e:e6:a5:fc:17:b7:1f:94:69:24:76:
         1c:8b:76:be:be:cd:a2:bb:24:40:52:8a:05:e3:65:b9:60:3c:
         6d:f1:88:da:01:ef:cd:96:c0:18:70:20:24:97:24:85:bc:29:
         f3:d4:99:b4:34:84:06:98:71:c2:f9:98:77:3e:8f:72:92:95:
         e9:a8:b5:0e:46:8c:44:9f:b8:7c:c9:3e:3b:f1:71:d2:f9:d1:
         8d:1d:a3:03:79:55:0a:24:3a:31:87:d0:f5:70:c2:c1:ab:f1:
         48:29:e6:25:4f:94:92:93:ef:6e:b9:a9:89:a5:6a:40:98:ca:
         ca:5c:fd:c6:f0:c0:d3:e7:4a:22:1a:fd:5e:c5:0b:58:d2:8c:
         63:48:92:3a:10:4a:25:b2:9c:59:e3:57:9c:2c:b6:a4:28:fc:
         8f:7d:c7:dd:64:b2:d2:85:6a:8b:8a:29:12:c9:de:23:3b:b4:
         e4:a1:c8:1b:8d:83:04:a7:53:4f:b8:93:4d:06:cf:a2:b4:6f:
         b6:8d:b3:0e:f3:42:92:30:b6:c5:7b:1b:6f:40:b5:67:33:06:
         cd:21:e0:11:af:48:e1:5b:4b:fb:0c:00:56:c6:2a:c6:4e:94:
         34:6f:a6:d8:75:91:7a:49:c7:c7:3d:44:93:15:05:6d:4b:b7:
         96:58:62:60:7a:92:57:2f:98:26:2e:da:3d:1c:02:40:d8:d4:
         3e:f7:42:65:9c:c6:54:53:48:31:bb:f1:1e:c9:1d:ea:7a:1f:
         30:d7:5f:c7:c2:d1:51:55:99:cc:6f:39:e6:bb:ce:8d:0f:66:
         e5:07:40:b3:57:13:f3:d8:4b:96:65:a5:8e:2b:bf:19:f6:1a:
         ca:08:fe:44:69:f2:38:a6
-----BEGIN CERTIFICATE-----
MIIEYzCCAkugAwIBAgIBEDANBgkqhkiG9w0BAQsFADCBgTELMAkGA1UEBhMCTkwx
EzARBgNVBAgTCkdlbGRlcmxhbmQxDzANBgNVBAcTBkFybmhlbTENMAsGA1UEChME
T1NHUDENMAsGA1UECxMET1NHUDENMAsGA1UEAxMET1NHUDEfMB0GCSqGSIb3DQEJ
ARYQYWRkcmVzc0BPU0dQLmNvbTAeFw0xOTA5MDMwODE1MzVaFw0yNTA0MDEwODE1
MzVaMBUxEzARBgNVBAMMClpvd25TdHJlYW0wggEiMA0GCSqGSIb3DQEBAQUAA4IB
DwAwggEKAoIBAQCeI5HrBoFhoYw+Agc8NG+9mlyNPPI0v1TyG8FXYOdLE4JJB4/X
ZUdJNahl2BXdm4D/BUqO/ixer8673xsKkv/lUq1eEVpfWB9iaF2o2F5ryep5yvfj
8jfr+vupsh+owMcGZvz5iTqkVvGetrJBK8cRz2FXTcPOdH009icnElZlP66rnrH8
J/UFj0cTVcFjzEYEvo7WL+vi+3ghWslDM5pFSBLjB+2plW0kVDQ7BH6eKN5qBeT0
Sl1zlP17ba/s69KdCOFsODiRewZ2x/2gTdgnTkLPRe9XSzmuYpP5ib+Gp8OGWM3i
129pYDAzxasZjGAUenlpyiIPmylX3HaMAFYvAgMBAAGjUTBPMAkGA1UdEwQCMAAw
DgYDVR0PAQH/BAQDAgTwMBMGA1UdJQQMMAoGCCsGAQUFBwMCMB0GA1UdDgQWBBRf
N84Qq3XflQ4jNM7/Ut8kVeCCZTANBgkqhkiG9w0BAQsFAAOCAgEAfnDO0acgflB1
OIp9LvhoEk08uQfH3v3hEGMfJBRK6gIFZyjXlcl92F2NSq+zBecSubiBjt+XlhdO
UNrpuVZAIu+6nQykhkZh4pag2QTIY7B7K5kf0zadSBHe733Vl7dHZecZ7H5PQJMM
x9BdjaUNV/FQKwTJXId1JMJNiraUCH4q1nz7Ai87d+lIBN76DRBaJzZ/x5nJcoDy
6Xhj+fo9avgUKSqEvdsMLyvrsQf5OQIZTGgZ1nrfMRny5p7mpfwXtx+UaSR2HIt2
vr7NorskQFKKBeNluWA8bfGI2gHvzZbAGHAgJJckhbwp89SZtDSEBphxwvmYdz6P
cpKV6ai1DkaMRJ+4fMk+O/Fx0vnRjR2jA3lVCiQ6MYfQ9XDCwavxSCnmJU+UkpPv
brmpiaVqQJjKylz9xvDA0+dKIhr9XsULWNKMY0iSOhBKJbKcWeNXnCy2pCj8j33H
3WSy0oVqi4opEsneIzu05KHIG42DBKdTT7iTTQbPorRvto2zDvNCkjC2xXsbb0C1
ZzMGzSHgEa9I4VtL+wwAVsYqxk6UNG+m2HWReknHxz1EkxUFbUu3llhiYHqSVy+Y
Ji7aPRwCQNjUPvdCZZzGVFNIMbvxHskd6nofMNdfx8LRUVWZzG855rvOjQ9m5QdA
s1cT89hLlmWljiu/GfYaygj+RGnyOKY=
-----END CERTIFICATE-----
