Certificate:
    Data:
        Version: 3 (0x2)
        Serial Number: 17 (0x11)
    Signature Algorithm: sha256WithRSAEncryption
        Issuer: C=NL, ST=Gelderland, L=Arnhem, O=OSGP, OU=OSGP, CN=OSGP/emailAddress=address@OSGP.com
        Validity
            Not Before: Nov 29 08:52:09 2019 GMT
            Not After : Mar  1 08:52:09 2025 GMT
        Subject: CN=localhost
        Subject Public Key Info:
            Public Key Algorithm: rsaEncryption
                Public-Key: (2048 bit)
                Modulus:
                    00:af:0a:97:12:05:85:ee:5c:a8:dd:a3:1f:80:45:
                    9d:43:d8:56:ce:ff:c6:af:07:14:53:09:7f:59:35:
                    b6:00:ea:ea:51:5c:6a:03:82:b4:fe:e1:6f:02:0a:
                    2e:fb:59:a6:e0:0b:53:a8:ea:42:88:66:13:df:6d:
                    35:40:fa:1b:6f:38:41:f0:e4:6f:c4:2f:5f:bd:5c:
                    9d:cd:db:69:1e:eb:40:6b:3e:b0:a1:6b:59:dc:ae:
                    1d:e9:f7:28:94:87:03:0f:ea:89:56:25:ad:08:3d:
                    ff:b2:50:46:a7:c6:f9:87:56:1a:95:db:0e:95:9e:
                    11:34:83:28:13:0a:fd:18:60:38:5e:de:bf:f3:37:
                    e1:ce:71:ad:25:4b:7a:b7:9b:d5:84:86:f1:a2:d4:
                    ef:1e:93:fa:db:f9:15:b5:c2:ae:8c:82:27:13:1e:
                    cc:38:56:4c:38:71:a7:c6:85:5a:3a:1c:52:66:02:
                    b6:ab:6a:d8:0f:d1:54:53:75:de:25:bc:5a:37:5a:
                    d0:89:bc:67:07:df:2f:e1:89:8a:84:27:7c:be:be:
                    41:a4:5e:92:79:ff:93:ff:6a:43:44:b5:ab:eb:29:
                    98:2d:6e:f6:6e:9e:23:f4:8b:6f:82:ee:d8:98:32:
                    a3:e8:5a:80:7b:c9:f2:8c:64:b9:f6:34:50:21:2c:
                    f0:f5
                Exponent: 65537 (0x10001)
        X509v3 extensions:
            X509v3 Basic Constraints: 
                CA:FALSE
            X509v3 Key Usage: critical
                Digital Signature, Non Repudiation, Key Encipherment, Data Encipherment
            X509v3 Extended Key Usage: 
                TLS Web Server Authentication
            X509v3 Subject Key Identifier: 
                DC:7F:62:A7:F9:E0:DA:40:A7:0D:CE:E2:46:87:76:78:15:FB:C0:76
    Signature Algorithm: sha256WithRSAEncryption
         d3:15:90:2c:12:2f:63:36:79:bd:ac:03:49:c6:bd:36:d9:25:
         af:b0:2a:f7:4a:71:e0:e6:51:b5:e0:b4:08:92:28:c6:90:ec:
         dc:37:83:4b:6b:a9:db:58:d9:31:ce:91:eb:03:67:00:fd:bf:
         a7:29:c3:d6:54:68:71:af:c9:55:1e:bd:43:c0:2f:7f:40:f5:
         8a:22:71:58:94:a4:1e:49:33:84:a5:62:23:e7:c1:d3:37:f8:
         fd:29:5a:40:ad:f3:f6:58:bf:a8:d4:e9:63:d0:6e:94:ba:12:
         39:b3:7c:37:67:bb:f7:26:c9:ed:08:d4:fd:3b:3f:3c:cf:28:
         7f:17:e0:3f:1f:cc:8d:d1:b3:ea:2c:c3:f1:c7:b5:34:0d:10:
         bd:25:57:1c:c6:fe:50:1f:5a:52:b5:1c:db:44:3d:0c:72:b9:
         84:9f:a0:89:1f:5f:2d:d2:54:1f:a6:93:cd:b5:90:fc:e0:1e:
         94:f6:aa:41:6e:03:77:70:0e:9d:bf:90:43:06:cc:2a:1b:84:
         c4:68:c2:20:75:12:30:3e:8e:8e:d9:98:ae:f7:ee:6a:44:2a:
         0a:80:23:74:c0:57:f3:3d:f5:ac:44:15:38:bb:06:cf:00:b1:
         65:d8:31:66:13:dc:8d:cb:79:b2:ec:f5:6e:f2:6d:c8:83:cd:
         7c:c5:0d:bb:bb:a6:67:4d:41:0b:01:4b:c0:0a:c9:e9:36:2a:
         1d:98:3e:8a:8d:f4:d2:99:26:ac:20:36:5f:9a:95:23:57:ae:
         7e:1d:fd:91:c8:36:d4:09:44:98:8d:41:42:29:7e:7c:47:f5:
         92:c2:33:ac:59:b0:25:63:e9:19:64:d2:56:90:b8:af:30:c1:
         3d:27:1d:f9:78:1c:7e:39:0a:29:39:fe:1c:c7:68:7f:02:42:
         0b:36:3b:1a:91:31:ab:a2:a0:7b:52:51:04:48:39:a2:2e:df:
         95:1c:72:0c:99:dc:d6:a3:50:8c:f1:1c:01:fe:3e:24:d1:78:
         fd:25:63:b8:9b:6f:27:07:7b:dc:97:db:16:5a:88:49:5b:0f:
         2e:bc:e5:4f:04:e1:3e:3c:18:4d:a8:41:e9:4c:02:a9:45:51:
         de:f6:72:97:db:f8:3e:a9:a8:19:b3:f7:c9:05:70:f5:5f:3f:
         f3:19:61:68:03:3b:b4:ae:96:44:41:9e:5d:ef:e4:40:8d:2b:
         ea:42:f3:48:4b:27:36:74:e6:23:5f:02:5f:c8:87:f1:31:64:
         ad:1f:cb:98:ad:64:ad:0c:85:e5:08:1d:da:f8:40:df:a3:3f:
         34:1f:c5:6a:8f:ad:dc:54:b6:06:d6:7d:94:12:9a:13:be:34:
         89:95:df:5c:09:68:eb:08
-----BEGIN CERTIFICATE-----
MIIEYjCCAkqgAwIBAgIBETANBgkqhkiG9w0BAQsFADCBgTELMAkGA1UEBhMCTkwx
EzARBgNVBAgTCkdlbGRlcmxhbmQxDzANBgNVBAcTBkFybmhlbTENMAsGA1UEChME
T1NHUDENMAsGA1UECxMET1NHUDENMAsGA1UEAxMET1NHUDEfMB0GCSqGSIb3DQEJ
ARYQYWRkcmVzc0BPU0dQLmNvbTAeFw0xOTExMjkwODUyMDlaFw0yNTAzMDEwODUy
MDlaMBQxEjAQBgNVBAMMCWxvY2FsaG9zdDCCASIwDQYJKoZIhvcNAQEBBQADggEP
ADCCAQoCggEBAK8KlxIFhe5cqN2jH4BFnUPYVs7/xq8HFFMJf1k1tgDq6lFcagOC
tP7hbwIKLvtZpuALU6jqQohmE99tNUD6G284QfDkb8QvX71cnc3baR7rQGs+sKFr
WdyuHen3KJSHAw/qiVYlrQg9/7JQRqfG+YdWGpXbDpWeETSDKBMK/RhgOF7ev/M3
4c5xrSVLereb1YSG8aLU7x6T+tv5FbXCroyCJxMezDhWTDhxp8aFWjocUmYCtqtq
2A/RVFN13iW8Wjda0Im8ZwffL+GJioQnfL6+QaReknn/k/9qQ0S1q+spmC1u9m6e
I/SLb4Lu2Jgyo+hagHvJ8oxkufY0UCEs8PUCAwEAAaNRME8wCQYDVR0TBAIwADAO
BgNVHQ8BAf8EBAMCBPAwEwYDVR0lBAwwCgYIKwYBBQUHAwEwHQYDVR0OBBYEFNx/
Yqf54NpApw3O4kaHdngV+8B2MA0GCSqGSIb3DQEBCwUAA4ICAQDTFZAsEi9jNnm9
rANJxr022SWvsCr3SnHg5lG14LQIkijGkOzcN4NLa6nbWNkxzpHrA2cA/b+nKcPW
VGhxr8lVHr1DwC9/QPWKInFYlKQeSTOEpWIj58HTN/j9KVpArfP2WL+o1Olj0G6U
uhI5s3w3Z7v3JsntCNT9Oz88zyh/F+A/H8yN0bPqLMPxx7U0DRC9JVccxv5QH1pS
tRzbRD0McrmEn6CJH18t0lQfppPNtZD84B6U9qpBbgN3cA6dv5BDBswqG4TEaMIg
dRIwPo6O2Ziu9+5qRCoKgCN0wFfzPfWsRBU4uwbPALFl2DFmE9yNy3my7PVu8m3I
g818xQ27u6ZnTUELAUvACsnpNiodmD6KjfTSmSasIDZfmpUjV65+Hf2RyDbUCUSY
jUFCKX58R/WSwjOsWbAlY+kZZNJWkLivMME9Jx35eBx+OQopOf4cx2h/AkILNjsa
kTGroqB7UlEESDmiLt+VHHIMmdzWo1CM8RwB/j4k0Xj9JWO4m28nB3vcl9sWWohJ
Ww8uvOVPBOE+PBhNqEHpTAKpRVHe9nKX2/g+qagZs/fJBXD1Xz/zGWFoAzu0rpZE
QZ5d7+RAjSvqQvNISyc2dOYjXwJfyIfxMWStH8uYrWStDIXlCB3a+EDfoz80H8Vq
j63cVLYG1n2UEpoTvjSJld9cCWjrCA==
-----END CERTIFICATE-----
