Certificate:
    Data:
        Version: 3 (0x2)
        Serial Number: 18 (0x12)
    Signature Algorithm: sha256WithRSAEncryption
        Issuer: C=NL, ST=Gelderland, L=Arnhem, O=OSGP, OU=OSGP, CN=OSGP/emailAddress=address@OSGP.com
        Validity
            Not Before: Mar  9 14:10:49 2020 GMT
            Not After : Mar  9 14:10:49 2023 GMT
        Subject: CN=*.dev.osgp.cloud
        Subject Public Key Info:
            Public Key Algorithm: rsaEncryption
                Public-Key: (2048 bit)
                Modulus:
                    00:b3:f5:b3:bd:1f:83:39:f3:13:7e:e9:dc:57:db:
                    7a:97:52:a2:dd:83:2f:75:b3:d7:95:5c:17:3f:26:
                    8a:a6:09:58:ff:1d:65:50:bf:64:49:ab:6a:89:d5:
                    8f:74:75:40:2f:00:b7:2d:5a:6b:8d:14:38:35:99:
                    25:b5:2a:26:32:fb:73:09:76:b9:30:03:e5:f8:82:
                    7d:ea:0f:51:1b:bc:c8:8d:aa:f2:88:47:71:2f:0d:
                    f8:33:23:2b:e5:4a:79:5c:ff:51:11:6b:cd:bd:ae:
                    6f:0c:cc:16:3a:d7:95:fc:41:d6:93:19:38:cf:d6:
                    8e:e9:80:12:8e:a3:4a:8d:fe:3b:08:e9:ac:f4:13:
                    47:74:2b:71:5c:fe:4d:26:c3:9d:5a:75:ec:ef:d7:
                    b7:52:e6:c5:f3:13:13:d0:a2:91:bc:10:d5:42:c0:
                    34:8c:b6:b5:c2:b4:11:8b:66:fb:c0:3f:45:c8:c5:
                    53:15:d5:bd:da:a5:01:96:33:2f:20:6f:89:43:11:
                    84:39:0a:79:3e:13:1b:33:c0:c5:7a:15:dd:e3:ff:
                    27:7a:1b:55:f1:8e:cf:e2:57:a1:37:5d:94:5b:6e:
                    ac:21:6b:3a:09:d4:e4:ff:1f:3a:62:56:0d:20:9a:
                    d4:15:3a:a3:13:04:eb:ab:0a:72:58:c0:63:4c:4a:
                    39:4f
                Exponent: 65537 (0x10001)
        X509v3 extensions:
            X509v3 Basic Constraints: 
                CA:FALSE
            X509v3 Key Usage: critical
                Digital Signature, Non Repudiation, Key Encipherment, Data Encipherment
            X509v3 Extended Key Usage: 
                TLS Web Server Authentication
            X509v3 Subject Key Identifier: 
                98:10:A7:18:B9:BF:CE:A4:BD:7C:04:4E:F5:38:31:EF:29:75:93:21
    Signature Algorithm: sha256WithRSAEncryption
         17:c5:a4:ee:39:53:82:8a:22:df:7f:4d:c1:5e:88:af:cb:ea:
         d9:ea:6c:78:13:69:ee:94:c3:f1:2d:0c:68:ac:67:43:3c:d6:
         79:6b:ed:04:ce:6c:c5:3e:e2:7a:f7:69:c2:46:f7:47:00:28:
         81:53:9b:4f:2c:4f:d3:82:ca:82:db:66:18:8d:73:fa:87:ba:
         91:b0:87:08:c1:22:f1:95:4b:07:18:6c:01:12:52:33:bb:a3:
         65:91:7b:9e:dd:81:69:cc:af:ba:fb:fc:2f:45:f7:85:f0:bb:
         32:20:7f:d5:52:4f:0a:83:88:6b:77:88:11:73:fa:3d:3c:2c:
         11:02:29:19:1c:e2:c0:3c:92:78:84:c6:df:16:ff:a8:56:df:
         0a:76:26:1d:1f:82:29:b3:45:d3:db:d0:16:66:aa:93:d0:4a:
         aa:25:73:b2:46:93:07:62:b4:c1:e3:01:3d:d1:78:b3:e5:fc:
         4f:4f:4d:62:3a:ef:8a:97:88:4f:c9:78:97:95:cf:03:10:52:
         52:5f:93:2e:22:cc:ea:f2:fd:fe:87:34:24:03:df:cc:c3:01:
         89:07:90:47:19:32:fb:87:0b:19:9f:85:f7:78:3f:5c:0b:87:
         d9:c3:f5:b4:39:7e:2e:a9:1f:4a:04:57:cf:6a:44:28:2b:de:
         d7:96:63:52:7d:49:53:17:c5:a2:7a:b9:65:3e:a1:2b:5e:85:
         e2:63:37:fc:e8:3a:ae:65:f0:21:2f:92:24:7c:69:f6:40:a2:
         9c:d7:64:09:49:58:b7:28:34:55:6e:d6:65:48:b0:f6:ba:a0:
         35:27:3a:ff:52:03:f0:4e:91:a7:43:b6:c1:11:41:df:f1:d7:
         eb:e6:be:9e:d6:e7:a0:a3:24:c3:bc:02:4a:85:b2:bf:84:54:
         cd:6b:81:ca:db:6c:8b:19:50:d0:88:67:08:d6:0b:52:64:de:
         fd:de:a2:06:7e:7b:1f:06:69:7a:a3:7c:42:90:b0:d5:d2:85:
         73:fd:3e:cf:e0:3b:e8:89:4a:7e:97:c4:fc:99:5d:dc:31:d6:
         e4:b5:dd:5d:81:30:37:7b:66:83:a2:76:57:c4:b0:cb:4e:18:
         ea:7a:b9:e6:b5:57:2b:22:aa:4f:1a:4f:ba:84:10:fe:dd:3a:
         e9:b9:fe:e4:0a:a3:00:41:02:f7:79:c8:0c:10:d5:0a:c4:fc:
         91:2d:50:5a:8b:e6:94:c7:93:eb:1d:04:a5:ef:9a:0c:9c:ea:
         a8:2a:dc:54:ac:b1:57:b6:c0:83:c0:dc:16:a5:5e:70:4f:87:
         92:d9:c1:5e:f0:cc:07:0c:9e:aa:fc:9e:9c:0f:bf:c8:ce:f1:
         7e:d4:46:6d:e6:df:7e:7f
-----BEGIN CERTIFICATE-----
MIIEaTCCAlGgAwIBAgIBEjANBgkqhkiG9w0BAQsFADCBgTELMAkGA1UEBhMCTkwx
EzARBgNVBAgTCkdlbGRlcmxhbmQxDzANBgNVBAcTBkFybmhlbTENMAsGA1UEChME
T1NHUDENMAsGA1UECxMET1NHUDENMAsGA1UEAxMET1NHUDEfMB0GCSqGSIb3DQEJ
ARYQYWRkcmVzc0BPU0dQLmNvbTAeFw0yMDAzMDkxNDEwNDlaFw0yMzAzMDkxNDEw
NDlaMBsxGTAXBgNVBAMMECouZGV2Lm9zZ3AuY2xvdWQwggEiMA0GCSqGSIb3DQEB
AQUAA4IBDwAwggEKAoIBAQCz9bO9H4M58xN+6dxX23qXUqLdgy91s9eVXBc/Joqm
CVj/HWVQv2RJq2qJ1Y90dUAvALctWmuNFDg1mSW1KiYy+3MJdrkwA+X4gn3qD1Eb
vMiNqvKIR3EvDfgzIyvlSnlc/1ERa829rm8MzBY615X8QdaTGTjP1o7pgBKOo0qN
/jsI6az0E0d0K3Fc/k0mw51adezv17dS5sXzExPQopG8ENVCwDSMtrXCtBGLZvvA
P0XIxVMV1b3apQGWMy8gb4lDEYQ5Cnk+ExszwMV6Fd3j/yd6G1Xxjs/iV6E3XZRb
bqwhazoJ1OT/HzpiVg0gmtQVOqMTBOurCnJYwGNMSjlPAgMBAAGjUTBPMAkGA1Ud
EwQCMAAwDgYDVR0PAQH/BAQDAgTwMBMGA1UdJQQMMAoGCCsGAQUFBwMBMB0GA1Ud
DgQWBBSYEKcYub/OpL18BE71ODHvKXWTITANBgkqhkiG9w0BAQsFAAOCAgEAF8Wk
7jlTgooi339NwV6Ir8vq2epseBNp7pTD8S0MaKxnQzzWeWvtBM5sxT7ievdpwkb3
RwAogVObTyxP04LKgttmGI1z+oe6kbCHCMEi8ZVLBxhsARJSM7ujZZF7nt2Bacyv
uvv8L0X3hfC7MiB/1VJPCoOIa3eIEXP6PTwsEQIpGRziwDySeITG3xb/qFbfCnYm
HR+CKbNF09vQFmaqk9BKqiVzskaTB2K0weMBPdF4s+X8T09NYjrvipeIT8l4l5XP
AxBSUl+TLiLM6vL9/oc0JAPfzMMBiQeQRxky+4cLGZ+F93g/XAuH2cP1tDl+Lqkf
SgRXz2pEKCve15ZjUn1JUxfFonq5ZT6hK16F4mM3/Og6rmXwIS+SJHxp9kCinNdk
CUlYtyg0VW7WZUiw9rqgNSc6/1ID8E6Rp0O2wRFB3/HX6+a+ntbnoKMkw7wCSoWy
v4RUzWuByttsixlQ0IhnCNYLUmTe/d6iBn57HwZpeqN8QpCw1dKFc/0+z+A76IlK
fpfE/Jld3DHW5LXdXYEwN3tmg6J2V8Swy04Y6nq55rVXKyKqTxpPuoQQ/t066bn+
5AqjAEEC93nIDBDVCsT8kS1QWovmlMeT6x0Epe+aDJzqqCrcVKyxV7bAg8DcFqVe
cE+HktnBXvDMBwyeqvyenA+/yM7xftRGbebffn8=
-----END CERTIFICATE-----
