Certificate:
    Data:
        Version: 3 (0x2)
        Serial Number: 19 (0x13)
    Signature Algorithm: sha256WithRSAEncryption
        Issuer: C=NL, ST=Gelderland, L=Arnhem, O=OSGP, OU=OSGP, CN=OSGP/emailAddress=address@OSGP.com
        Validity
            Not Before: Mar 10 18:03:37 2023 GMT
            Not After : Mar  9 18:03:37 2026 GMT
        Subject: CN=wildcard.dev.osgp.cloud
        Subject Public Key Info:
            Public Key Algorithm: rsaEncryption
                Public-Key: (2048 bit)
                Modulus:
                    00:d4:ae:6b:9b:17:2e:97:bf:4d:d6:a7:55:54:ae:
                    f5:50:d2:99:c2:a8:8f:2f:57:fa:74:d2:a3:8b:44:
                    96:92:e9:e9:29:39:e6:0b:98:de:b5:71:7b:f8:4b:
                    e3:31:d8:f1:e1:0f:55:87:ab:cf:91:77:5f:45:1c:
                    ae:af:4d:da:e3:cc:85:11:e9:5e:89:0b:a5:1d:43:
                    32:ff:6c:c1:7d:65:53:c6:0f:b9:80:f6:00:6d:34:
                    e8:3e:57:f5:80:3b:16:62:ed:d8:04:80:02:de:97:
                    28:9f:0e:1b:02:5e:61:f0:0f:8d:ce:ea:bf:48:29:
                    2c:51:1a:77:19:c2:af:23:18:52:1b:fa:03:6f:59:
                    c4:90:c0:ae:2c:79:d3:db:12:8f:97:cd:66:9f:2a:
                    e2:4e:ec:41:c4:41:6d:46:85:e3:fb:d8:37:6b:d0:
                    e4:0a:66:67:9d:6b:f6:01:58:f0:39:d8:6d:2f:78:
                    c1:a1:a6:d8:a0:5f:95:5e:8d:1d:57:07:8f:83:3c:
                    0f:8a:0b:dd:8a:3d:da:16:db:16:dd:e1:ed:85:82:
                    94:1b:b2:13:d8:5c:30:d5:5e:81:32:89:d0:84:98:
                    cf:0f:de:00:5c:e5:f8:8b:60:5e:f2:ef:d6:80:1a:
                    12:f7:ea:99:ca:9b:44:a6:0e:c6:bb:23:91:c5:85:
                    45:b9
                Exponent: 65537 (0x10001)
        X509v3 extensions:
            X509v3 Basic Constraints: 
                CA:FALSE
            X509v3 Key Usage: critical
                Digital Signature, Non Repudiation, Key Encipherment, Data Encipherment
            X509v3 Extended Key Usage: 
                TLS Web Server Authentication
            X509v3 Subject Key Identifier: 
                3C:72:3F:F5:F9:82:20:A8:6B:DA:96:B8:B0:88:EA:BD:B3:4B:9A:3E
    Signature Algorithm: sha256WithRSAEncryption
         88:b0:d9:bb:59:4f:6e:f0:77:e4:ca:74:9b:2c:97:c5:9b:7e:
         de:fb:eb:93:be:a9:ca:6e:ee:d5:94:0c:e2:ab:8f:91:a4:b1:
         40:70:57:aa:0c:83:98:62:53:fc:a1:f4:57:53:1e:7b:34:ee:
         0d:2f:1f:f2:49:1d:05:e8:48:9c:41:87:bf:37:14:59:8d:f7:
         56:e6:9c:ef:56:93:92:25:61:57:94:01:95:b2:38:d6:42:1d:
         65:9c:f2:3f:be:f2:80:a2:13:a3:e1:63:71:b4:92:b8:c6:f4:
         38:8e:02:95:e3:a7:ed:6c:86:48:23:05:78:d0:42:8f:15:b6:
         88:d3:0d:91:91:21:d9:f4:a7:ce:c8:3a:d7:58:b3:bc:a9:9c:
         4a:2a:0f:b1:0d:bc:f7:67:78:5c:97:8d:1a:d7:5b:8b:87:79:
         31:2b:5e:ad:36:48:d0:58:4d:50:b4:36:b2:1a:88:92:bb:4f:
         67:7e:3e:6f:ae:3d:e7:2a:54:45:a2:29:ac:5f:7e:cb:26:45:
         9a:ad:8f:95:99:07:d4:cf:08:20:59:57:bb:2e:6f:20:6c:ce:
         73:1c:86:ec:ab:20:68:bf:81:62:1f:0c:00:0a:d4:9f:f4:d3:
         cc:90:d2:a7:0d:08:4e:ab:15:a9:2e:0b:74:53:9c:28:95:36:
         15:fc:4a:7f:8a:de:22:c2:8a:de:ea:ec:26:2e:30:2a:eb:d8:
         53:ab:73:30:2d:84:d8:3f:60:66:44:41:aa:1b:7d:99:36:31:
         ee:99:c6:c6:ef:03:35:36:88:18:7c:6e:d6:35:cb:01:17:01:
         a3:b0:92:13:0a:4d:75:c5:a8:4e:f1:97:1f:e4:bb:08:30:f7:
         54:16:6f:ce:ea:5d:a9:51:66:7e:3e:06:92:60:dd:d8:75:e8:
         84:b3:be:3c:29:aa:df:57:b8:fd:ea:57:f3:e1:21:3e:bc:3d:
         ef:e6:2f:d0:83:94:8d:5f:a1:5d:80:c3:f9:f5:aa:31:89:71:
         e2:98:4a:3d:ba:38:c0:ef:fd:3d:b9:9f:c8:f6:c6:6e:90:18:
         93:8e:ce:ea:48:8c:3e:e4:40:39:3e:96:af:ac:f4:02:f7:56:
         6c:8b:28:80:21:b3:af:e1:8a:91:f7:b2:61:2c:08:d4:fb:c4:
         0b:e1:89:29:ba:68:bd:2a:19:cd:f5:62:0b:b3:c6:d1:b1:a5:
         49:92:f0:bf:5d:89:fe:e0:46:75:85:90:fc:2b:eb:9b:c3:30:
         4d:d6:9d:98:b4:db:d1:2e:90:4e:29:23:00:35:42:e8:bc:f4:
         15:9f:15:56:a0:bf:73:8c:41:2c:18:bb:b7:eb:08:30:80:e1:
         63:a8:74:4d:05:33:a3:28
-----BEGIN CERTIFICATE-----
MIIEcDCCAligAwIBAgIBEzANBgkqhkiG9w0BAQsFADCBgTELMAkGA1UEBhMCTkwx
EzARBgNVBAgTCkdlbGRlcmxhbmQxDzANBgNVBAcTBkFybmhlbTENMAsGA1UEChME
T1NHUDENMAsGA1UECxMET1NHUDENMAsGA1UEAxMET1NHUDEfMB0GCSqGSIb3DQEJ
ARYQYWRkcmVzc0BPU0dQLmNvbTAeFw0yMzAzMTAxODAzMzdaFw0yNjAzMDkxODAz
MzdaMCIxIDAeBgNVBAMMF3dpbGRjYXJkLmRldi5vc2dwLmNsb3VkMIIBIjANBgkq
hkiG9w0BAQEFAAOCAQ8AMIIBCgKCAQEA1K5rmxcul79N1qdVVK71UNKZwqiPL1f6
dNKji0SWkunpKTnmC5jetXF7+EvjMdjx4Q9Vh6vPkXdfRRyur03a48yFEeleiQul
HUMy/2zBfWVTxg+5gPYAbTToPlf1gDsWYu3YBIAC3pconw4bAl5h8A+Nzuq/SCks
URp3GcKvIxhSG/oDb1nEkMCuLHnT2xKPl81mnyriTuxBxEFtRoXj+9g3a9DkCmZn
nWv2AVjwOdhtL3jBoabYoF+VXo0dVwePgzwPigvdij3aFtsW3eHthYKUG7IT2Fww
1V6BMonQhJjPD94AXOX4i2Be8u/WgBoS9+qZyptEpg7GuyORxYVFuQIDAQABo1Ew
TzAJBgNVHRMEAjAAMA4GA1UdDwEB/wQEAwIE8DATBgNVHSUEDDAKBggrBgEFBQcD
ATAdBgNVHQ4EFgQUPHI/9fmCIKhr2pa4sIjqvbNLmj4wDQYJKoZIhvcNAQELBQAD
ggIBAIiw2btZT27wd+TKdJssl8Wbft7765O+qcpu7tWUDOKrj5GksUBwV6oMg5hi
U/yh9FdTHns07g0vH/JJHQXoSJxBh783FFmN91bmnO9Wk5IlYVeUAZWyONZCHWWc
8j++8oCiE6PhY3G0krjG9DiOApXjp+1shkgjBXjQQo8VtojTDZGRIdn0p87IOtdY
s7ypnEoqD7ENvPdneFyXjRrXW4uHeTErXq02SNBYTVC0NrIaiJK7T2d+Pm+uPecq
VEWiKaxffssmRZqtj5WZB9TPCCBZV7subyBsznMchuyrIGi/gWIfDAAK1J/008yQ
0qcNCE6rFakuC3RTnCiVNhX8Sn+K3iLCit7q7CYuMCrr2FOrczAthNg/YGZEQaob
fZk2Me6ZxsbvAzU2iBh8btY1ywEXAaOwkhMKTXXFqE7xlx/kuwgw91QWb87qXalR
Zn4+BpJg3dh16ISzvjwpqt9XuP3qV/PhIT68Pe/mL9CDlI1foV2Aw/n1qjGJceKY
Sj26OMDv/T25n8j2xm6QGJOOzupIjD7kQDk+lq+s9AL3VmyLKIAhs6/hipH3smEs
CNT7xAvhiSm6aL0qGc31YguzxtGxpUmS8L9dif7gRnWFkPwr65vDME3WnZi029Eu
kE4pIwA1Qui89BWfFVagv3OMQSwYu7frCDCA4WOodE0FM6Mo
-----END CERTIFICATE-----
