Certificate:
    Data:
        Version: 3 (0x2)
        Serial Number: 19 (0x13)
    Signature Algorithm: sha256WithRSAEncryption
        Issuer: C=NL, ST=Gelderland, L=Arnhem, O=OSGP, OU=OSGP, CN=OSGP/emailAddress=address@OSGP.com
        Validity
            Not Before: Mar 10 19:29:17 2023 GMT
            Not After : Mar  9 19:29:17 2026 GMT
        Subject: CN=*.dev.osgp.cloud
        Subject Public Key Info:
            Public Key Algorithm: rsaEncryption
                Public-Key: (2048 bit)
                Modulus:
                    00:f2:cb:23:43:bc:7c:d1:0e:42:bc:7a:f5:ca:8c:
                    e3:0a:eb:25:60:c5:5a:ef:a0:61:ad:d6:b9:64:a4:
                    1d:20:1f:e8:eb:4c:52:b0:12:f7:d9:44:d6:e7:b0:
                    c7:03:61:56:31:9e:09:27:43:e1:1c:ae:53:2f:57:
                    50:ca:07:b3:6a:bf:24:6e:bd:c5:3d:78:6a:29:af:
                    89:b3:52:34:62:c8:41:03:0f:1e:4d:5f:7b:01:33:
                    d1:82:6c:ed:1b:54:26:8e:5c:89:52:8e:2d:9b:02:
                    2d:c5:52:23:16:8a:07:20:64:48:b6:00:54:46:32:
                    86:87:70:e4:41:1e:de:91:2c:f5:94:5f:ce:bc:a2:
                    0b:a5:58:3e:c6:ce:4a:3c:2f:58:e4:be:2f:cf:5e:
                    c5:37:b8:77:a2:6e:5b:9c:d4:85:86:b0:a4:54:be:
                    54:9e:b0:7e:bb:a4:05:21:ba:52:11:ea:18:e7:64:
                    8a:62:79:9b:27:53:56:8b:59:c2:14:ae:af:9b:00:
                    be:95:ad:44:4a:f4:78:9b:64:9b:fb:33:62:21:5a:
                    9d:20:fb:f4:13:d1:f3:b5:70:27:d3:0f:f7:d6:87:
                    db:05:34:45:af:9a:d9:2f:be:ba:08:ae:f1:36:18:
                    b4:89:5c:fd:98:a7:7e:2a:ab:39:43:a2:7b:11:07:
                    f8:3f
                Exponent: 65537 (0x10001)
        X509v3 extensions:
            X509v3 Basic Constraints: 
                CA:FALSE
            X509v3 Key Usage: critical
                Digital Signature, Non Repudiation, Key Encipherment, Data Encipherment
            X509v3 Extended Key Usage: 
                TLS Web Server Authentication
            X509v3 Subject Key Identifier: 
                0E:63:32:7D:20:B2:50:6B:F4:0E:B1:73:2F:9C:52:40:13:2B:6A:11
    Signature Algorithm: sha256WithRSAEncryption
         20:0c:84:b6:c0:46:de:80:5e:36:e2:20:22:9e:73:71:f7:ba:
         00:a4:88:36:af:77:4b:93:c3:b5:6b:86:c1:56:f8:b3:da:be:
         77:4f:46:25:0d:7c:5d:88:3e:44:63:30:9b:11:2f:02:b8:05:
         37:10:ce:3e:9f:63:1a:c4:29:50:32:ab:ce:1f:93:d7:cc:ab:
         5e:63:4b:45:93:c5:6f:c0:9f:62:4a:a7:e2:8c:41:49:87:88:
         aa:81:b3:c4:d3:1b:52:93:cd:cd:dc:f9:0f:be:1b:22:87:48:
         d3:13:0c:d0:a4:f2:41:ea:65:58:15:ab:d1:f8:11:0e:16:c2:
         f5:71:35:45:03:d7:e8:ec:aa:a7:b3:4d:96:39:93:ca:72:d7:
         ce:bf:30:73:cf:fc:96:1e:6b:f6:64:61:88:69:a1:1d:1b:09:
         df:29:b1:a9:9f:3c:99:a2:58:7f:53:26:86:b0:c9:cf:67:5f:
         69:d9:8d:ac:63:8d:48:58:ee:cb:0b:5a:9a:0d:3a:aa:df:8f:
         db:11:3b:6c:23:30:40:40:54:d2:59:92:06:52:44:e5:38:2e:
         0e:84:21:bb:d8:65:41:1d:53:e3:b0:e9:69:04:dc:db:35:41:
         8a:4e:b9:9b:0d:ba:fd:5d:f0:a9:25:74:a5:95:c8:d5:3c:d7:
         bd:b6:0e:2e:d6:55:20:1e:17:ca:d5:31:bc:89:6c:ba:36:12:
         4c:9e:bd:6a:19:2a:92:24:5d:2d:27:de:ed:c8:61:b9:21:98:
         0a:67:d3:25:9e:66:47:48:a5:db:5f:88:db:f3:0c:ce:99:28:
         fc:7e:4f:8b:f1:87:14:c2:26:56:c6:26:e7:aa:0e:ec:12:74:
         73:39:a9:2c:bf:72:fc:fb:83:3c:5e:dd:0f:c5:bc:be:5f:fa:
         2a:ec:89:d2:3c:94:dc:c0:3a:c1:bb:a9:cf:92:8e:d5:af:b0:
         17:a4:7c:d4:55:63:cc:17:6e:cf:5e:da:6a:d5:1f:18:91:02:
         bc:f7:1e:47:d4:03:5a:4d:2b:74:09:e5:e8:71:a5:2a:89:e5:
         36:57:8b:7b:0b:52:72:68:de:4f:9a:e6:66:c0:25:82:46:ca:
         a5:40:8d:fc:02:34:a0:69:36:04:36:10:44:34:2e:8d:53:cb:
         3c:60:83:38:28:fc:05:30:b4:4c:ab:e1:4d:8e:81:51:3f:d1:
         1e:61:e4:f5:b6:9a:9a:13:36:68:d1:a7:1b:71:f1:89:e7:4d:
         26:aa:3d:ee:47:ad:97:d5:38:26:db:48:b8:fb:36:e5:dd:fb:
         76:69:24:ae:e9:8a:65:41:ee:38:83:b3:ab:6b:c1:ff:ca:f2:
         bf:ff:60:b3:8c:ae:5d:df
-----BEGIN CERTIFICATE-----
MIIEaTCCAlGgAwIBAgIBEzANBgkqhkiG9w0BAQsFADCBgTELMAkGA1UEBhMCTkwx
EzARBgNVBAgTCkdlbGRlcmxhbmQxDzANBgNVBAcTBkFybmhlbTENMAsGA1UEChME
T1NHUDENMAsGA1UECxMET1NHUDENMAsGA1UEAxMET1NHUDEfMB0GCSqGSIb3DQEJ
ARYQYWRkcmVzc0BPU0dQLmNvbTAeFw0yMzAzMTAxOTI5MTdaFw0yNjAzMDkxOTI5
MTdaMBsxGTAXBgNVBAMMECouZGV2Lm9zZ3AuY2xvdWQwggEiMA0GCSqGSIb3DQEB
AQUAA4IBDwAwggEKAoIBAQDyyyNDvHzRDkK8evXKjOMK6yVgxVrvoGGt1rlkpB0g
H+jrTFKwEvfZRNbnsMcDYVYxngknQ+EcrlMvV1DKB7NqvyRuvcU9eGopr4mzUjRi
yEEDDx5NX3sBM9GCbO0bVCaOXIlSji2bAi3FUiMWigcgZEi2AFRGMoaHcORBHt6R
LPWUX868ogulWD7Gzko8L1jkvi/PXsU3uHeibluc1IWGsKRUvlSesH67pAUhulIR
6hjnZIpieZsnU1aLWcIUrq+bAL6VrURK9HibZJv7M2IhWp0g+/QT0fO1cCfTD/fW
h9sFNEWvmtkvvroIrvE2GLSJXP2Yp34qqzlDonsRB/g/AgMBAAGjUTBPMAkGA1Ud
EwQCMAAwDgYDVR0PAQH/BAQDAgTwMBMGA1UdJQQMMAoGCCsGAQUFBwMBMB0GA1Ud
DgQWBBQOYzJ9ILJQa/QOsXMvnFJAEytqETANBgkqhkiG9w0BAQsFAAOCAgEAIAyE
tsBG3oBeNuIgIp5zcfe6AKSINq93S5PDtWuGwVb4s9q+d09GJQ18XYg+RGMwmxEv
ArgFNxDOPp9jGsQpUDKrzh+T18yrXmNLRZPFb8CfYkqn4oxBSYeIqoGzxNMbUpPN
zdz5D74bIodI0xMM0KTyQeplWBWr0fgRDhbC9XE1RQPX6Oyqp7NNljmTynLXzr8w
c8/8lh5r9mRhiGmhHRsJ3ymxqZ88maJYf1MmhrDJz2dfadmNrGONSFjuywtamg06
qt+P2xE7bCMwQEBU0lmSBlJE5TguDoQhu9hlQR1T47DpaQTc2zVBik65mw26/V3w
qSV0pZXI1TzXvbYOLtZVIB4XytUxvIlsujYSTJ69ahkqkiRdLSfe7chhuSGYCmfT
JZ5mR0il21+I2/MMzpko/H5Pi/GHFMImVsYm56oO7BJ0czmpLL9y/PuDPF7dD8W8
vl/6KuyJ0jyU3MA6wbupz5KO1a+wF6R81FVjzBduz17aatUfGJECvPceR9QDWk0r
dAnl6HGlKonlNleLewtScmjeT5rmZsAlgkbKpUCN/AI0oGk2BDYQRDQujVPLPGCD
OCj8BTC0TKvhTY6BUT/RHmHk9baamhM2aNGnG3HxiedNJqo97ketl9U4JttIuPs2
5d37dmkkrumKZUHuOIOzq2vB/8ryv/9gs4yuXd8=
-----END CERTIFICATE-----
