Certificate:
    Data:
        Version: 3 (0x2)
        Serial Number: 7 (0x7)
    Signature Algorithm: sha256WithRSAEncryption
        Issuer: C=NL, ST=Gelderland, L=Arnhem, O=OSGP, OU=OSGP, CN=OSGP/emailAddress=address@OSGP.com
        Validity
            Not Before: Jan 28 21:22:04 2017 GMT
            Not After : Jan 28 21:22:04 2020 GMT
        Subject: CN=enexis-poc.osgp.cloud
        Subject Public Key Info:
            Public Key Algorithm: rsaEncryption
                Public-Key: (2048 bit)
                Modulus:
                    00:af:b5:76:b0:26:0b:fa:d7:71:ff:5e:12:c2:69:
                    c0:88:b1:ca:9b:81:25:f8:56:42:66:28:20:cb:a9:
                    bb:bf:74:7b:4d:18:3e:3a:cb:3b:47:0d:13:fa:6c:
                    52:fd:99:a8:0a:dc:46:79:9d:70:fc:04:79:8e:f0:
                    6e:50:b8:39:63:cc:bf:5c:37:24:0e:e7:87:25:97:
                    ee:bb:17:f9:e0:6b:39:8d:fa:dd:05:f7:56:fc:3e:
                    21:94:d9:2f:13:3e:da:99:96:b0:54:a1:e3:3a:34:
                    cf:85:98:c1:b4:64:1b:cb:57:c0:e8:f0:46:23:a8:
                    f0:85:80:68:58:51:e8:05:c9:90:a9:65:51:89:24:
                    03:83:2b:19:88:ab:80:58:21:78:9f:f3:49:b9:80:
                    2c:36:79:40:c9:73:cc:ff:0c:25:8a:51:bf:27:ff:
                    81:b1:58:59:05:19:3e:3d:c8:4e:7a:c1:d8:b0:a0:
                    1f:5b:08:2c:29:94:d2:da:4e:f9:7c:b3:51:98:6f:
                    3c:0c:1f:7e:ed:eb:70:74:0b:1c:7e:6d:74:54:df:
                    b0:0b:42:27:a9:97:fd:9a:ee:17:ee:cf:87:0b:26:
                    99:ac:33:10:2d:3d:6d:5b:8a:37:07:0d:9f:d7:37:
                    31:d2:22:8f:32:13:bf:64:cb:ae:a4:5b:3c:05:69:
                    21:2b
                Exponent: 65537 (0x10001)
        X509v3 extensions:
            X509v3 Basic Constraints: 
                CA:FALSE
            X509v3 Key Usage: critical
                Digital Signature, Non Repudiation, Key Encipherment, Data Encipherment
            X509v3 Extended Key Usage: 
                TLS Web Server Authentication
            X509v3 Subject Key Identifier: 
                2C:FA:53:EB:ED:85:98:F9:AA:9B:93:28:F0:BE:BD:4E:EB:12:8F:31
    Signature Algorithm: sha256WithRSAEncryption
         2d:17:d3:0f:02:9d:6b:4b:3b:28:90:b3:cb:06:30:7d:48:2c:
         05:1a:53:07:94:25:73:7a:cd:ce:96:c5:6b:ef:51:90:14:5c:
         5f:0e:d4:cc:aa:27:7a:78:ae:ae:94:ee:f3:22:82:8f:8b:aa:
         4a:5c:65:45:04:51:97:4c:46:7e:02:c6:10:d4:81:77:0c:65:
         6e:2e:90:02:94:23:29:3d:7b:f4:d0:13:13:aa:d0:b8:e8:b3:
         ce:05:2e:e1:0d:31:4b:a7:64:5c:05:00:b2:95:99:ec:e1:54:
         e4:59:f8:af:ff:58:5a:d6:3f:ee:b8:d2:04:fb:f3:2c:e0:e8:
         ad:0d:0d:86:ba:07:ac:f4:e3:df:d7:18:6e:bc:8d:0a:0d:67:
         6c:d4:c6:17:1e:ef:17:40:60:2d:2c:7e:34:96:bc:09:cf:3f:
         c4:ce:d4:e9:65:ef:2d:fb:8e:2a:9a:95:2b:f9:93:50:45:66:
         a1:7e:25:d2:8f:4f:30:04:28:35:b4:6f:22:6d:0d:c7:56:20:
         7f:bb:ac:79:4e:eb:14:3f:0c:5f:f3:f2:51:3a:7d:52:49:84:
         fe:d9:f3:a2:d3:b9:0d:af:ab:d9:15:fc:6a:ee:22:1f:3b:89:
         ec:26:66:c9:68:7a:61:e4:62:ef:b9:2d:4c:6a:04:0a:fa:e9:
         70:8d:8f:66:74:98:4c:13:18:f3:f4:14:54:c6:d9:5d:f0:e1:
         3a:bc:8a:77:58:d8:4d:84:cb:3d:7a:f3:2c:9b:3b:a1:61:43:
         db:41:be:d0:4e:60:4f:57:f1:7b:08:26:ab:93:88:19:28:57:
         c3:54:1c:f8:6b:6c:63:d7:d6:fc:61:8c:92:57:19:29:bd:98:
         66:a6:d3:e7:95:30:c4:f6:32:67:bc:91:03:7b:b4:68:8f:df:
         64:96:4b:29:45:5a:e8:df:8b:ec:30:83:1e:65:27:06:25:06:
         14:f1:b8:e9:ad:7e:26:f8:96:f8:04:6a:67:b7:b8:4f:e6:c5:
         4f:c7:f8:79:4e:24:7c:64:28:e8:f5:f6:45:58:2d:9c:4c:56:
         ca:0b:cd:07:6f:be:2e:28:33:aa:75:c5:21:e7:01:33:ea:fa:
         a2:d0:a5:a5:49:ef:83:a1:e4:d4:ed:54:31:51:18:d1:5d:cf:
         64:3c:f0:18:5a:ec:f6:ba:9c:be:a3:ee:50:88:88:cb:a1:81:
         5e:0b:a1:75:ab:b7:46:f9:26:43:36:95:bb:b6:85:41:98:07:
         49:1c:a0:1d:b2:3a:40:cf:ab:3e:f8:d3:02:06:d7:eb:45:55:
         8d:cd:74:27:a0:49:69:e5:5a:9e:c0:60:83:39:a4:92:11:6b:
         d0:7e:e9:06:44:4b:4a:86
-----BEGIN CERTIFICATE-----
MIIEbjCCAlagAwIBAgIBBzANBgkqhkiG9w0BAQsFADCBgTELMAkGA1UEBhMCTkwx
EzARBgNVBAgTCkdlbGRlcmxhbmQxDzANBgNVBAcTBkFybmhlbTENMAsGA1UEChME
T1NHUDENMAsGA1UECxMET1NHUDENMAsGA1UEAxMET1NHUDEfMB0GCSqGSIb3DQEJ
ARYQYWRkcmVzc0BPU0dQLmNvbTAeFw0xNzAxMjgyMTIyMDRaFw0yMDAxMjgyMTIy
MDRaMCAxHjAcBgNVBAMMFWVuZXhpcy1wb2Mub3NncC5jbG91ZDCCASIwDQYJKoZI
hvcNAQEBBQADggEPADCCAQoCggEBAK+1drAmC/rXcf9eEsJpwIixypuBJfhWQmYo
IMupu790e00YPjrLO0cNE/psUv2ZqArcRnmdcPwEeY7wblC4OWPMv1w3JA7nhyWX
7rsX+eBrOY363QX3Vvw+IZTZLxM+2pmWsFSh4zo0z4WYwbRkG8tXwOjwRiOo8IWA
aFhR6AXJkKllUYkkA4MrGYirgFgheJ/zSbmALDZ5QMlzzP8MJYpRvyf/gbFYWQUZ
Pj3ITnrB2LCgH1sILCmU0tpO+XyzUZhvPAwffu3rcHQLHH5tdFTfsAtCJ6mX/Zru
F+7PhwsmmawzEC09bVuKNwcNn9c3MdIijzITv2TLrqRbPAVpISsCAwEAAaNRME8w
CQYDVR0TBAIwADAOBgNVHQ8BAf8EBAMCBPAwEwYDVR0lBAwwCgYIKwYBBQUHAwEw
HQYDVR0OBBYEFCz6U+vthZj5qpuTKPC+vU7rEo8xMA0GCSqGSIb3DQEBCwUAA4IC
AQAtF9MPAp1rSzsokLPLBjB9SCwFGlMHlCVzes3OlsVr71GQFFxfDtTMqid6eK6u
lO7zIoKPi6pKXGVFBFGXTEZ+AsYQ1IF3DGVuLpAClCMpPXv00BMTqtC46LPOBS7h
DTFLp2RcBQCylZns4VTkWfiv/1ha1j/uuNIE+/Ms4OitDQ2Guges9OPf1xhuvI0K
DWds1MYXHu8XQGAtLH40lrwJzz/EztTpZe8t+44qmpUr+ZNQRWahfiXSj08wBCg1
tG8ibQ3HViB/u6x5TusUPwxf8/JROn1SSYT+2fOi07kNr6vZFfxq7iIfO4nsJmbJ
aHph5GLvuS1MagQK+ulwjY9mdJhMExjz9BRUxtld8OE6vIp3WNhNhMs9evMsmzuh
YUPbQb7QTmBPV/F7CCark4gZKFfDVBz4a2xj19b8YYySVxkpvZhmptPnlTDE9jJn
vJEDe7Roj99klkspRVro34vsMIMeZScGJQYU8bjprX4m+Jb4BGpnt7hP5sVPx/h5
TiR8ZCjo9fZFWC2cTFbKC80Hb74uKDOqdcUh5wEz6vqi0KWlSe+DoeTU7VQxURjR
Xc9kPPAYWuz2upy+o+5QiIjLoYFeC6F1q7dG+SZDNpW7toVBmAdJHKAdsjpAz6s+
+NMCBtfrRVWNzXQnoElp5VqewGCDOaSSEWvQfukGREtKhg==
-----END CERTIFICATE-----
