Certificate:
    Data:
        Version: 3 (0x2)
        Serial Number: 5 (0x5)
    Signature Algorithm: sha256WithRSAEncryption
        Issuer: C=NL, ST=Gelderland, L=Arnhem, O=OSGP, OU=OSGP, CN=OSGP/emailAddress=address@OSGP.com
        Validity
            Not Before: Dec  7 11:30:32 2016 GMT
            Not After : Dec  7 11:30:32 2019 GMT
        Subject: CN=LianderNetManagement.pfx
        Subject Public Key Info:
            Public Key Algorithm: rsaEncryption
                Public-Key: (2048 bit)
                Modulus:
                    00:ce:0f:ef:1d:47:40:3a:86:33:86:cd:3e:6a:cf:
                    da:11:df:7c:9c:5d:68:76:65:b5:39:b1:bf:57:27:
                    a5:09:1f:14:8f:02:ee:c6:b5:e9:27:3b:a3:0c:27:
                    ca:c4:fa:a0:0e:52:98:d3:6c:f6:55:61:d9:f0:44:
                    18:29:43:6f:75:7a:ea:db:23:df:41:db:86:b5:d4:
                    67:00:ae:c4:ba:be:f1:97:51:76:12:52:d9:c2:a9:
                    8e:c2:1e:7e:2d:be:59:49:8d:00:e0:0f:f1:48:91:
                    c3:4a:dd:63:fd:cc:a0:ae:45:3c:fb:0b:0d:fd:4f:
                    67:b7:8a:d2:c0:86:e9:a4:59:5d:1b:b9:29:f4:87:
                    71:e7:1c:79:50:0d:15:f3:6e:65:81:50:ed:c1:5e:
                    4e:18:89:d1:3c:a9:1f:04:92:0f:01:3a:0b:c2:7d:
                    bf:8f:05:b1:f1:09:41:44:3b:d7:0f:52:64:38:b2:
                    f4:71:8f:34:d3:a5:8d:3d:70:3d:ef:21:f3:eb:34:
                    d9:cd:07:05:5c:f1:f8:9f:9d:10:28:28:01:67:70:
                    d0:23:b1:f0:e6:41:f8:49:a8:4e:43:4e:d7:39:8d:
                    6f:9a:c1:cb:96:61:bb:e2:60:d8:2b:31:a9:be:ac:
                    c4:3c:df:43:98:0e:9a:b1:bf:48:a4:6d:a0:4e:03:
                    b8:b3
                Exponent: 65537 (0x10001)
        X509v3 extensions:
            X509v3 Basic Constraints: 
                CA:FALSE
            X509v3 Key Usage: critical
                Digital Signature, Non Repudiation, Key Encipherment, Data Encipherment
            X509v3 Extended Key Usage: 
                TLS Web Client Authentication
            X509v3 Subject Key Identifier: 
                80:15:09:73:CE:93:F9:26:1B:F0:2C:3F:08:60:AC:81:EB:DF:57:5D
    Signature Algorithm: sha256WithRSAEncryption
         da:f0:50:7c:00:3c:fd:8d:e5:66:1b:64:60:05:9f:f3:99:ab:
         ab:53:a1:79:8f:12:4c:c4:f2:76:6e:d8:c1:9a:8e:5a:3c:bd:
         10:8b:37:a7:b2:c1:47:80:b6:fd:f9:e3:f6:45:31:d5:4b:95:
         9a:74:fe:98:4f:3d:d8:46:b2:14:2a:b4:72:0a:28:06:50:db:
         7c:17:aa:d7:0d:84:3a:44:f2:ea:4e:0a:b7:42:1c:30:ba:f5:
         b5:a6:49:37:52:10:34:29:e5:fb:bd:53:ee:44:23:10:d9:38:
         28:0d:54:3b:04:55:b9:c4:c4:0a:88:f3:48:b6:05:e3:42:da:
         82:54:c5:9b:7e:37:c6:71:31:98:03:15:08:9a:2f:da:5e:7d:
         96:ca:6b:e9:f3:c6:9d:b5:1f:05:0c:4d:d1:68:b6:87:b7:8e:
         a7:f7:0a:4c:33:12:32:90:94:41:71:5d:41:7b:ad:36:d2:34:
         a1:18:a7:37:40:ce:f5:50:6f:dd:57:c8:d2:5b:68:a0:37:0a:
         f6:82:22:07:90:c1:67:4e:08:04:87:da:5f:f1:10:6c:cc:a2:
         f2:9f:3c:71:5f:68:59:61:c2:6b:f5:bd:5b:fd:a9:c4:bd:7f:
         ab:76:d9:0a:47:ee:f2:af:d4:c3:7e:5c:87:d0:d9:84:5a:d9:
         dc:2d:9c:db:f5:bd:6a:d4:4b:f1:26:53:0d:60:69:4f:55:74:
         9a:b5:ea:e3:7e:b0:fe:da:e8:ab:a8:d4:3f:1e:1b:96:38:06:
         e5:f2:5a:53:60:60:2e:16:55:31:e5:e0:27:16:b5:f4:85:9a:
         78:9e:4f:05:82:6a:f4:a0:ed:11:9c:be:96:fe:ba:22:c9:5d:
         a2:0f:41:24:62:78:b7:6f:94:78:05:18:b4:19:d4:fd:22:17:
         b9:d8:f2:38:60:34:2d:77:87:37:29:fe:41:e3:d8:b5:4a:16:
         eb:f2:5b:ff:2c:64:08:ad:81:0d:96:b8:80:be:77:34:55:78:
         77:66:9a:4c:61:35:b9:3f:27:e5:7f:84:15:81:dd:de:c2:57:
         4a:cc:3a:06:f4:53:e5:fd:06:de:2a:84:de:e0:ed:9a:e7:c3:
         63:8c:ce:99:55:a0:a0:6b:d0:b3:a6:8b:0e:13:75:9d:d5:3b:
         01:c0:63:ac:92:b9:36:f4:ea:95:55:c9:23:6e:79:68:25:92:
         e4:df:8b:2d:65:ba:48:c7:62:da:1c:d6:57:ac:56:c0:f4:4e:
         85:96:30:0d:91:c7:ba:cd:2c:04:d6:3b:c9:4c:a6:87:a3:37:
         15:d6:c1:84:a3:0e:88:c9:4d:8c:36:b7:af:00:58:dc:38:37:
         5f:1e:a5:74:7e:f6:e1:97
-----BEGIN CERTIFICATE-----
MIIEcTCCAlmgAwIBAgIBBTANBgkqhkiG9w0BAQsFADCBgTELMAkGA1UEBhMCTkwx
EzARBgNVBAgTCkdlbGRlcmxhbmQxDzANBgNVBAcTBkFybmhlbTENMAsGA1UEChME
T1NHUDENMAsGA1UECxMET1NHUDENMAsGA1UEAxMET1NHUDEfMB0GCSqGSIb3DQEJ
ARYQYWRkcmVzc0BPU0dQLmNvbTAeFw0xNjEyMDcxMTMwMzJaFw0xOTEyMDcxMTMw
MzJaMCMxITAfBgNVBAMMGExpYW5kZXJOZXRNYW5hZ2VtZW50LnBmeDCCASIwDQYJ
KoZIhvcNAQEBBQADggEPADCCAQoCggEBAM4P7x1HQDqGM4bNPmrP2hHffJxdaHZl
tTmxv1cnpQkfFI8C7sa16Sc7owwnysT6oA5SmNNs9lVh2fBEGClDb3V66tsj30Hb
hrXUZwCuxLq+8ZdRdhJS2cKpjsIefi2+WUmNAOAP8UiRw0rdY/3MoK5FPPsLDf1P
Z7eK0sCG6aRZXRu5KfSHcecceVANFfNuZYFQ7cFeThiJ0TypHwSSDwE6C8J9v48F
sfEJQUQ71w9SZDiy9HGPNNOljT1wPe8h8+s02c0HBVzx+J+dECgoAWdw0COx8OZB
+EmoTkNO1zmNb5rBy5Zhu+Jg2Csxqb6sxDzfQ5gOmrG/SKRtoE4DuLMCAwEAAaNR
ME8wCQYDVR0TBAIwADAOBgNVHQ8BAf8EBAMCBPAwEwYDVR0lBAwwCgYIKwYBBQUH
AwIwHQYDVR0OBBYEFIAVCXPOk/kmG/AsPwhgrIHr31ddMA0GCSqGSIb3DQEBCwUA
A4ICAQDa8FB8ADz9jeVmG2RgBZ/zmaurU6F5jxJMxPJ2btjBmo5aPL0QizenssFH
gLb9+eP2RTHVS5WadP6YTz3YRrIUKrRyCigGUNt8F6rXDYQ6RPLqTgq3QhwwuvW1
pkk3UhA0KeX7vVPuRCMQ2TgoDVQ7BFW5xMQKiPNItgXjQtqCVMWbfjfGcTGYAxUI
mi/aXn2Wymvp88adtR8FDE3RaLaHt46n9wpMMxIykJRBcV1Be6020jShGKc3QM71
UG/dV8jSW2igNwr2giIHkMFnTggEh9pf8RBszKLynzxxX2hZYcJr9b1b/anEvX+r
dtkKR+7yr9TDflyH0NmEWtncLZzb9b1q1EvxJlMNYGlPVXSaterjfrD+2uirqNQ/
HhuWOAbl8lpTYGAuFlUx5eAnFrX0hZp4nk8Fgmr0oO0RnL6W/roiyV2iD0EkYni3
b5R4BRi0GdT9Ihe52PI4YDQtd4c3Kf5B49i1Shbr8lv/LGQIrYENlriAvnc0VXh3
ZppMYTW5Pyflf4QVgd3ewldKzDoG9FPl/QbeKoTe4O2a58NjjM6ZVaCga9CzposO
E3Wd1TsBwGOskrk29OqVVckjbnloJZLk34stZbpIx2LaHNZXrFbA9E6FljANkce6
zSwE1jvJTKaHozcV1sGEow6IyU2MNrevAFjcODdfHqV0fvbhlw==
-----END CERTIFICATE-----
