Certificate:
    Data:
        Version: 3 (0x2)
        Serial Number: 1 (0x1)
        Signature Algorithm: sha256WithRSAEncryption
        Issuer: C=NL, ST=Gelderland, L=Arnhem, O=OSGP, OU=OSGP, CN=OSGP/emailAddress=address@OSGP.com
        Validity
            Not Before: Apr 28 16:24:33 2015 GMT
            Not After : Apr 27 16:24:33 2018 GMT
        Subject: CN=localhost
        Subject Public Key Info:
            Public Key Algorithm: rsaEncryption
                Public-Key: (2048 bit)
                Modulus:
                    00:a4:52:91:ef:97:b4:0c:ce:74:60:06:3a:b7:95:
                    bf:43:b3:49:2a:d9:91:5d:37:7c:ca:87:a0:2a:2b:
                    32:75:86:c5:71:f5:40:58:8b:1a:e0:b5:de:e7:6b:
                    00:d7:2b:24:fc:f0:8d:52:60:f5:e2:89:31:9f:7d:
                    87:08:49:1f:00:c9:5a:5a:a1:9e:d1:48:18:40:b0:
                    61:7d:3e:43:f3:65:58:34:3b:dd:ad:56:4b:6f:99:
                    d8:d4:92:0d:e1:ff:62:8f:fb:82:0e:e2:47:6d:3f:
                    a6:3b:bb:3e:fc:5f:fe:b7:78:b4:8f:bc:c5:ea:ed:
                    21:38:3e:77:d1:0b:a5:46:b0:6f:52:8e:53:9f:dc:
                    a5:98:c7:e2:6c:14:46:4f:86:f8:17:f2:17:a4:e3:
                    d5:ae:36:66:14:b4:1f:b6:85:d3:74:9e:b1:82:de:
                    07:60:65:0c:e2:9d:32:79:3f:a7:fd:90:ad:d9:28:
                    af:43:fd:bb:fc:8c:60:1d:db:09:64:16:20:f7:b3:
                    a0:39:0e:b7:1d:64:9e:65:e1:56:8b:50:9c:ad:6a:
                    35:38:d3:a8:7d:1e:eb:ed:dd:f7:fd:eb:2b:28:5b:
                    c5:b0:58:35:6b:51:6f:e8:b2:bf:25:7e:90:a5:ba:
                    3c:f3:10:af:7e:fa:b3:e2:c3:22:9c:d6:4f:0d:7c:
                    85:71
                Exponent: 65537 (0x10001)
        X509v3 extensions:
            X509v3 Basic Constraints: 
                CA:FALSE
            X509v3 Key Usage: critical
                Digital Signature, Non Repudiation, Key Encipherment, Data Encipherment
            X509v3 Extended Key Usage: 
                TLS Web Server Authentication
            X509v3 Subject Key Identifier: 
                7E:55:C3:18:31:5F:85:BA:9D:0F:74:77:AA:D3:D2:05:FA:F9:FD:06
    Signature Algorithm: sha256WithRSAEncryption
        38:39:7b:cc:da:70:d7:1a:ba:0e:34:52:c3:53:ff:a4:da:5b:
        2e:ba:ee:cc:7c:13:58:bb:12:30:10:c2:76:31:34:b0:13:45:
        89:e3:ed:ed:3d:c6:6b:c0:6d:fe:fe:07:78:15:3e:ee:78:23:
        11:2a:18:89:5d:85:1b:b2:08:38:2a:df:12:6d:db:fd:0b:58:
        35:a9:5d:37:8e:dd:9c:1f:2a:7a:d3:12:3f:ec:db:de:39:d8:
        51:0c:a1:5f:28:ca:1c:de:61:98:23:74:97:ac:fc:75:19:41:
        cd:f6:d8:b2:9e:a4:8a:08:d5:34:58:4a:7d:82:b5:e3:0d:46:
        80:d7:c5:27:ac:aa:d2:42:8f:ba:51:fb:c3:ea:79:ca:de:71:
        0f:58:1c:37:16:99:8d:7f:0e:ab:2e:4b:ff:77:ec:27:06:34:
        ff:91:2e:15:f4:6b:13:12:bd:09:b3:38:e2:ad:13:a8:d9:f9:
        50:13:d3:2e:29:c8:1a:6b:78:11:fe:00:f5:d4:40:ee:94:69:
        0b:cd:d3:16:33:aa:c6:d6:56:01:e1:4c:aa:66:de:5c:08:43:
        e1:3e:82:bb:ab:67:6c:ed:84:d8:19:90:96:ef:b5:0d:76:67:
        37:c6:c2:06:dd:d2:4f:86:f2:f9:5e:e7:9d:48:8d:b3:37:23:
        48:62:b3:bd:2f:37:6b:5d:4e:75:92:28:b4:25:a4:9e:21:cf:
        34:ca:da:d3:7c:00:61:e3:75:d1:d5:0f:b0:7a:1f:4c:c1:29:
        b8:fc:86:31:5f:56:93:9e:f0:fd:85:a5:6f:07:cb:af:4e:e4:
        37:07:cc:37:75:40:34:7a:f0:38:cf:88:e5:18:9e:ba:33:51:
        c9:68:24:22:69:03:ac:94:13:d2:b2:ca:2c:2d:ec:fa:a7:d8:
        07:e9:01:74:95:5e:ed:65:82:f8:4b:51:9c:6e:b6:76:35:ea:
        d9:c7:12:9e:50:9f:2e:67:22:20:62:02:df:43:a9:4d:51:0d:
        8e:5b:b5:84:69:38:50:93:89:35:fb:4d:e5:8d:a7:8a:c3:fe:
        32:54:a7:c3:0b:9d:1f:fe:b6:56:95:b3:fb:06:e2:9c:2f:a4:
        53:a1:4a:15:9f:31:a0:2b:3a:3f:41:63:6b:b3:94:b4:09:fb:
        35:3b:c5:10:e9:5d:d6:9c:53:d6:24:cf:43:f8:1a:98:cd:12:
        fa:a4:a9:47:33:27:82:7c:3b:df:04:46:3b:9f:17:bd:d0:5a:
        cc:68:fd:f2:3d:55:10:50:ae:7f:fa:23:f4:94:1a:fd:2f:fb:
        57:b3:93:48:c1:8f:0c:7f:ee:7a:f2:71:7c:15:c0:ed:37:a3:
        b7:77:19:1a:70:3c:66:0e
-----BEGIN CERTIFICATE-----
MIIEYjCCAkqgAwIBAgIBATANBgkqhkiG9w0BAQsFADCBgTELMAkGA1UEBhMCTkwx
EzARBgNVBAgTCkdlbGRlcmxhbmQxDzANBgNVBAcTBkFybmhlbTENMAsGA1UEChME
T1NHUDENMAsGA1UECxMET1NHUDENMAsGA1UEAxMET1NHUDEfMB0GCSqGSIb3DQEJ
ARYQYWRkcmVzc0BPU0dQLmNvbTAeFw0xNTA0MjgxNjI0MzNaFw0xODA0MjcxNjI0
MzNaMBQxEjAQBgNVBAMTCWxvY2FsaG9zdDCCASIwDQYJKoZIhvcNAQEBBQADggEP
ADCCAQoCggEBAKRSke+XtAzOdGAGOreVv0OzSSrZkV03fMqHoCorMnWGxXH1QFiL
GuC13udrANcrJPzwjVJg9eKJMZ99hwhJHwDJWlqhntFIGECwYX0+Q/NlWDQ73a1W
S2+Z2NSSDeH/Yo/7gg7iR20/pju7Pvxf/rd4tI+8xertITg+d9ELpUawb1KOU5/c
pZjH4mwURk+G+BfyF6Tj1a42ZhS0H7aF03SesYLeB2BlDOKdMnk/p/2Qrdkor0P9
u/yMYB3bCWQWIPezoDkOtx1knmXhVotQnK1qNTjTqH0e6+3d9/3rKyhbxbBYNWtR
b+iyvyV+kKW6PPMQr376s+LDIpzWTw18hXECAwEAAaNRME8wCQYDVR0TBAIwADAO
BgNVHQ8BAf8EBAMCBPAwEwYDVR0lBAwwCgYIKwYBBQUHAwEwHQYDVR0OBBYEFH5V
wxgxX4W6nQ90d6rT0gX6+f0GMA0GCSqGSIb3DQEBCwUAA4ICAQA4OXvM2nDXGroO
NFLDU/+k2lsuuu7MfBNYuxIwEMJ2MTSwE0WJ4+3tPcZrwG3+/gd4FT7ueCMRKhiJ
XYUbsgg4Kt8Sbdv9C1g1qV03jt2cHyp60xI/7NveOdhRDKFfKMoc3mGYI3SXrPx1
GUHN9tiynqSKCNU0WEp9grXjDUaA18UnrKrSQo+6UfvD6nnK3nEPWBw3FpmNfw6r
Lkv/d+wnBjT/kS4V9GsTEr0JszjirROo2flQE9MuKcgaa3gR/gD11EDulGkLzdMW
M6rG1lYB4UyqZt5cCEPhPoK7q2ds7YTYGZCW77UNdmc3xsIG3dJPhvL5XuedSI2z
NyNIYrO9LzdrXU51kii0JaSeIc80ytrTfABh43XR1Q+weh9MwSm4/IYxX1aTnvD9
haVvB8uvTuQ3B8w3dUA0evA4z4jlGJ66M1HJaCQiaQOslBPSssosLez6p9gH6QF0
lV7tZYL4S1GcbrZ2NerZxxKeUJ8uZyIgYgLfQ6lNUQ2OW7WEaThQk4k1+03ljaeK
w/4yVKfDC50f/rZWlbP7BuKcL6RToUoVnzGgKzo/QWNrs5S0Cfs1O8UQ6V3WnFPW
JM9D+BqYzRL6pKlHMyeCfDvfBEY7nxe90FrMaP3yPVUQUK5/+iP0lBr9L/tXs5NI
wY8Mf+568nF8FcDtN6O3dxkacDxmDg==
-----END CERTIFICATE-----
