Certificate:
    Data:
        Version: 3 (0x2)
        Serial Number: 6 (0x6)
    Signature Algorithm: sha256WithRSAEncryption
        Issuer: C=NL, ST=Gelderland, L=Arnhem, O=OSGP, OU=OSGP, CN=OSGP/emailAddress=address@OSGP.com
        Validity
            Not Before: Aug 30 06:26:35 2016 GMT
            Not After : Aug 30 06:26:35 2019 GMT
        Subject: CN=Test Organisation
        Subject Public Key Info:
            Public Key Algorithm: rsaEncryption
                Public-Key: (2048 bit)
                Modulus:
                    00:bb:98:ad:3d:05:b5:1d:09:2f:27:16:e6:a2:e2:
                    e8:f1:c8:a9:b3:fa:b3:98:e9:ab:2c:db:d3:df:82:
                    15:01:db:73:98:d3:b4:b0:3c:a0:ed:46:f5:7c:f0:
                    c4:32:4b:72:69:07:ca:b4:20:b4:e2:ab:3c:9e:5e:
                    ce:68:d3:7c:28:fc:9b:ae:4a:28:52:88:95:fe:71:
                    15:3d:e5:e7:eb:c8:15:7f:89:e1:6b:13:2c:67:b3:
                    aa:0f:c1:cd:00:2f:7a:59:6a:f1:e8:aa:01:f0:50:
                    25:59:5a:fd:7c:0c:e4:2d:69:e5:59:c5:a0:ca:b8:
                    26:7d:19:3d:b9:06:6d:07:ca:d8:28:a5:39:9f:ba:
                    49:5a:b5:03:d4:c6:9e:3b:a6:45:d6:a3:d6:ec:5c:
                    d7:df:d1:fd:f4:20:fa:5c:a5:26:5f:d6:da:88:c5:
                    3f:1c:57:5e:3d:f4:bd:2c:41:69:73:b4:1c:54:28:
                    ec:5a:5c:21:f7:86:da:db:66:a0:23:4c:b9:6e:1f:
                    64:7b:b2:75:13:6b:97:b2:6d:77:53:28:f1:f0:f9:
                    67:65:0c:b8:52:66:50:c8:04:6d:0b:14:dc:ef:28:
                    d9:33:e0:45:10:3e:96:b3:cc:a0:08:4d:e6:57:b6:
                    62:c6:23:d8:37:b3:b0:54:8d:08:cb:00:cc:ff:18:
                    35:9d
                Exponent: 65537 (0x10001)
        X509v3 extensions:
            X509v3 Basic Constraints: 
                CA:FALSE
            X509v3 Key Usage: critical
                Digital Signature, Non Repudiation, Key Encipherment, Data Encipherment
            X509v3 Extended Key Usage: 
                TLS Web Client Authentication
            X509v3 Subject Key Identifier: 
                33:0D:AC:79:9F:78:C8:1B:06:86:90:CA:5E:C8:B0:E0:EE:C6:2B:CF
    Signature Algorithm: sha256WithRSAEncryption
         b6:5c:22:c0:bc:0c:60:99:0b:c5:15:86:ea:cd:7c:8f:02:52:
         4b:ad:6d:18:ee:88:9d:35:ad:37:55:8b:a7:a0:3a:96:e4:6d:
         66:10:65:5d:4c:39:ce:9e:b6:a6:8e:fb:d6:3f:5e:b2:55:27:
         74:d1:23:4c:6a:0b:a0:10:c4:0d:f8:59:49:c6:b2:e7:0b:b5:
         52:b2:d0:6e:45:95:5f:f3:d0:69:40:bf:5a:78:be:c0:5f:63:
         7a:b7:0c:c3:fd:6b:38:2d:c1:55:f4:09:21:8f:24:af:6f:56:
         d2:15:57:2b:cc:12:c5:18:c2:dc:df:8f:0a:e3:49:4c:d7:41:
         a2:cc:ae:80:96:2b:b2:18:a0:85:78:8b:83:c4:bb:c0:8a:c4:
         d2:f2:d2:91:20:19:28:89:c1:4d:c4:04:3d:d0:3a:2b:06:7b:
         02:a5:95:50:89:8d:6a:f7:55:45:51:33:85:02:60:b2:e3:3f:
         d9:6c:45:2f:21:72:f1:c8:6e:82:87:ad:7a:ae:7b:84:83:90:
         18:00:c7:ee:c5:85:e6:3b:34:13:9e:9e:c3:bf:20:88:7b:a6:
         58:44:75:3a:f0:04:81:59:99:10:90:9e:36:fa:c1:7b:49:c6:
         ff:5a:a7:0b:0f:b6:5d:c9:3d:f8:f6:32:15:00:0d:38:47:46:
         99:c7:e5:3b:50:96:4b:d3:2e:f9:78:37:37:b5:6e:e5:da:ab:
         5c:67:29:02:a8:1f:42:f5:42:c4:c1:f9:b2:22:63:ee:89:46:
         02:46:47:0c:f4:4f:20:ad:b7:76:54:e3:d9:11:c2:24:8b:51:
         49:7a:46:3a:a6:bc:1f:2a:d4:36:72:20:db:01:66:20:62:0c:
         02:5f:90:28:08:53:24:d0:f2:7a:a9:8a:64:a8:cd:ba:57:fb:
         fc:d1:f3:3e:b8:69:26:62:81:3a:2b:c3:4d:a8:af:37:ff:91:
         ed:8d:01:c4:1e:ba:ad:ea:47:f5:4c:7a:24:51:9d:cc:b5:ad:
         b6:df:74:42:9b:8b:64:28:a4:83:0d:5e:47:3d:51:ca:f5:6f:
         f5:d6:76:31:2c:ca:ca:d3:2b:c6:9d:f9:c2:98:ab:44:8f:e1:
         0d:bf:3f:2e:7b:df:47:a1:d0:5b:2d:eb:59:8d:c9:02:0c:f7:
         b6:3e:46:59:f1:e4:31:e1:e8:94:89:cb:9e:e0:93:0b:d2:28:
         95:9b:c2:9e:f0:9d:50:a6:d5:2b:30:ed:66:b7:e9:d6:9a:8b:
         9a:16:bf:68:c1:0d:83:52:5c:c6:8a:25:0e:66:b2:00:11:9e:
         64:1e:b9:98:75:80:ef:dd:b8:8e:7d:7c:97:03:1b:cc:e4:4d:
         f8:65:34:d2:b9:0b:45:aa
-----BEGIN CERTIFICATE-----
MIIEajCCAlKgAwIBAgIBBjANBgkqhkiG9w0BAQsFADCBgTELMAkGA1UEBhMCTkwx
EzARBgNVBAgTCkdlbGRlcmxhbmQxDzANBgNVBAcTBkFybmhlbTENMAsGA1UEChME
T1NHUDENMAsGA1UECxMET1NHUDENMAsGA1UEAxMET1NHUDEfMB0GCSqGSIb3DQEJ
ARYQYWRkcmVzc0BPU0dQLmNvbTAeFw0xNjA4MzAwNjI2MzVaFw0xOTA4MzAwNjI2
MzVaMBwxGjAYBgNVBAMTEVRlc3QgT3JnYW5pc2F0aW9uMIIBIjANBgkqhkiG9w0B
AQEFAAOCAQ8AMIIBCgKCAQEAu5itPQW1HQkvJxbmouLo8cips/qzmOmrLNvT34IV
AdtzmNO0sDyg7Ub1fPDEMktyaQfKtCC04qs8nl7OaNN8KPybrkooUoiV/nEVPeXn
68gVf4nhaxMsZ7OqD8HNAC96WWrx6KoB8FAlWVr9fAzkLWnlWcWgyrgmfRk9uQZt
B8rYKKU5n7pJWrUD1MaeO6ZF1qPW7FzX39H99CD6XKUmX9baiMU/HFdePfS9LEFp
c7QcVCjsWlwh94ba22agI0y5bh9ke7J1E2uXsm13Uyjx8PlnZQy4UmZQyARtCxTc
7yjZM+BFED6Ws8ygCE3mV7ZixiPYN7OwVI0IywDM/xg1nQIDAQABo1EwTzAJBgNV
HRMEAjAAMA4GA1UdDwEB/wQEAwIE8DATBgNVHSUEDDAKBggrBgEFBQcDAjAdBgNV
HQ4EFgQUMw2seZ94yBsGhpDKXsiw4O7GK88wDQYJKoZIhvcNAQELBQADggIBALZc
IsC8DGCZC8UVhurNfI8CUkutbRjuiJ01rTdVi6egOpbkbWYQZV1MOc6etqaO+9Y/
XrJVJ3TRI0xqC6AQxA34WUnGsucLtVKy0G5FlV/z0GlAv1p4vsBfY3q3DMP9azgt
wVX0CSGPJK9vVtIVVyvMEsUYwtzfjwrjSUzXQaLMroCWK7IYoIV4i4PEu8CKxNLy
0pEgGSiJwU3EBD3QOisGewKllVCJjWr3VUVRM4UCYLLjP9lsRS8hcvHIboKHrXqu
e4SDkBgAx+7FheY7NBOensO/IIh7plhEdTrwBIFZmRCQnjb6wXtJxv9apwsPtl3J
Pfj2MhUADThHRpnH5TtQlkvTLvl4Nze1buXaq1xnKQKoH0L1QsTB+bIiY+6JRgJG
Rwz0TyCtt3ZU49kRwiSLUUl6RjqmvB8q1DZyINsBZiBiDAJfkCgIUyTQ8nqpimSo
zbpX+/zR8z64aSZigTorw02orzf/ke2NAcQeuq3qR/VMeiRRncy1rbbfdEKbi2Qo
pIMNXkc9Ucr1b/XWdjEsysrTK8ad+cKYq0SP4Q2/Py5730eh0Fst61mNyQIM97Y+
Rlnx5DHh6JSJy57gkwvSKJWbwp7wnVCm1Ssw7Wa36daai5oWv2jBDYNSXMaKJQ5m
sgARnmQeuZh1gO/duI59fJcDG8zkTfhlNNK5C0Wq
-----END CERTIFICATE-----
