Certificate:
    Data:
        Version: 3 (0x2)
        Serial Number: 7 (0x7)
    Signature Algorithm: sha256WithRSAEncryption
        Issuer: C=NL, ST=Gelderland, L=Arnhem, O=OSGP, OU=OSGP, CN=OSGP/emailAddress=address@OSGP.com
        Validity
            Not Before: Sep  1 07:34:00 2016 GMT
            Not After : Sep  1 07:34:00 2019 GMT
        Subject: CN=unknown-organization
        Subject Public Key Info:
            Public Key Algorithm: rsaEncryption
                Public-Key: (2048 bit)
                Modulus:
                    00:bf:53:80:c1:83:1c:bc:e0:64:06:07:ce:d6:ae:
                    e2:66:96:00:e2:6e:a9:f4:28:95:54:17:b4:74:12:
                    64:c8:0d:01:74:5d:34:85:ee:92:44:61:99:93:a8:
                    27:04:24:cd:b1:c4:2f:78:f2:56:7c:6c:98:ce:a8:
                    19:28:55:ed:5f:22:3a:be:b6:09:09:51:4b:95:6e:
                    61:51:a4:4b:2b:a9:ad:df:a6:14:ee:b7:95:76:8a:
                    5d:7e:03:19:3c:97:ae:46:31:fb:76:1b:69:c7:b1:
                    a6:08:9f:7a:09:b2:a1:13:2a:53:bc:72:0d:30:b8:
                    59:5a:73:c3:df:e1:cd:84:8c:b6:ad:16:b0:41:80:
                    73:ff:a0:6c:10:77:3b:17:65:be:4a:c2:42:5b:57:
                    c7:f2:37:64:82:83:aa:b5:07:be:8c:35:7b:aa:fc:
                    93:3f:06:3d:e5:0f:1c:ed:b2:c8:c9:49:ce:02:cb:
                    74:54:84:c7:dc:ba:25:e2:1c:ea:9e:62:0c:c4:05:
                    e6:31:d8:a3:34:2d:d0:13:81:92:c1:35:a4:f1:e0:
                    9d:0c:d5:41:a8:6b:a5:24:5f:d8:d2:9a:f9:e6:a5:
                    ba:1d:92:89:f1:4a:bf:29:95:f2:2e:0a:96:62:ef:
                    15:52:5b:8c:0d:a4:ec:2f:3e:cd:5b:4e:0b:f8:15:
                    8f:ed
                Exponent: 65537 (0x10001)
        X509v3 extensions:
            X509v3 Basic Constraints: 
                CA:FALSE
            X509v3 Key Usage: critical
                Digital Signature, Non Repudiation, Key Encipherment, Data Encipherment
            X509v3 Extended Key Usage: 
                TLS Web Client Authentication
            X509v3 Subject Key Identifier: 
                08:B9:C2:7B:B8:61:FA:A5:56:5C:B6:23:E6:E0:86:E7:29:F9:64:F1
    Signature Algorithm: sha256WithRSAEncryption
         11:3f:29:6c:64:5e:2c:cc:37:80:e2:e4:39:c9:78:65:29:8b:
         9c:a4:0f:20:b1:2a:34:f9:3f:a0:a2:5e:8d:72:46:c2:ae:77:
         37:66:ed:5e:24:09:59:ca:ee:5d:3b:d7:30:9a:96:26:9b:c2:
         7c:5d:2b:8e:ab:52:88:ca:94:25:b6:61:84:e4:75:a9:6f:37:
         19:1e:3e:23:58:68:a7:ed:f7:14:66:b3:ec:0d:48:59:29:d5:
         45:56:6f:2d:3a:ea:56:4a:e5:92:20:99:65:a8:e0:55:63:a4:
         7f:e5:ff:d6:01:6e:83:71:31:b3:41:90:09:62:27:4c:26:2b:
         b6:25:52:c7:d5:24:d2:42:a7:af:b2:20:a5:00:59:64:81:69:
         8b:61:21:58:9d:24:5b:09:0f:f4:58:35:fe:1c:39:de:55:cf:
         f2:8f:7a:95:73:73:91:f8:11:47:50:9e:39:a5:ae:6d:35:9f:
         30:4b:1d:15:8b:e3:55:e0:4a:88:07:4f:d6:bb:16:2c:b3:8c:
         2f:f6:95:be:91:19:a7:cf:ed:3e:bd:b0:00:d6:2a:4d:a2:49:
         8d:7b:7a:c6:50:02:aa:6e:9e:f8:78:53:59:b6:36:0a:92:7f:
         94:7c:ff:a4:de:b7:c7:9a:af:4d:ee:70:93:29:5e:a8:ce:a2:
         5c:1d:7c:f7:4b:6b:c5:eb:fd:7d:34:f1:0b:24:b5:90:ed:85:
         07:9d:a5:54:f3:32:66:67:8f:3f:4b:1d:5b:73:5d:e2:b3:64:
         12:8b:f6:2c:aa:c4:d9:f6:f3:88:20:ce:ef:13:f0:da:01:fd:
         87:06:63:9a:bb:73:cd:dc:8a:05:db:2b:60:4e:5c:41:8d:24:
         4d:1e:84:35:5c:f9:c2:a3:41:e7:0c:07:d0:ce:fd:68:32:f3:
         11:fd:29:60:dc:01:89:b9:3d:db:94:13:2b:bd:ec:b7:10:74:
         2b:c0:30:bc:22:26:9a:9f:1e:06:52:19:0f:d1:22:0d:90:d4:
         86:b2:47:6d:66:0e:dd:6e:21:ca:6f:0a:e8:f0:c4:a8:38:bf:
         56:bb:b5:97:96:60:97:7b:a7:bf:63:4b:1f:79:a3:71:fb:a5:
         b9:39:ef:d9:20:35:6a:74:84:cc:83:63:15:70:5a:e4:ed:5c:
         b4:5f:37:8a:99:99:09:da:91:90:7e:99:aa:8e:78:f7:4b:f9:
         98:58:ab:86:89:87:57:90:9e:38:d1:7a:54:45:95:d8:9e:3a:
         3c:2e:2e:6c:ac:3d:f2:da:5a:6a:80:0f:9d:61:ef:cd:54:5e:
         f2:95:95:b0:85:9f:8b:3b:8b:69:d9:d3:2b:74:34:d4:86:c2:
         ca:29:25:15:0d:46:ee:44
-----BEGIN CERTIFICATE-----
MIIEbTCCAlWgAwIBAgIBBzANBgkqhkiG9w0BAQsFADCBgTELMAkGA1UEBhMCTkwx
EzARBgNVBAgTCkdlbGRlcmxhbmQxDzANBgNVBAcTBkFybmhlbTENMAsGA1UEChME
T1NHUDENMAsGA1UECxMET1NHUDENMAsGA1UEAxMET1NHUDEfMB0GCSqGSIb3DQEJ
ARYQYWRkcmVzc0BPU0dQLmNvbTAeFw0xNjA5MDEwNzM0MDBaFw0xOTA5MDEwNzM0
MDBaMB8xHTAbBgNVBAMTFHVua25vd24tb3JnYW5pemF0aW9uMIIBIjANBgkqhkiG
9w0BAQEFAAOCAQ8AMIIBCgKCAQEAv1OAwYMcvOBkBgfO1q7iZpYA4m6p9CiVVBe0
dBJkyA0BdF00he6SRGGZk6gnBCTNscQvePJWfGyYzqgZKFXtXyI6vrYJCVFLlW5h
UaRLK6mt36YU7reVdopdfgMZPJeuRjH7dhtpx7GmCJ96CbKhEypTvHINMLhZWnPD
3+HNhIy2rRawQYBz/6BsEHc7F2W+SsJCW1fH8jdkgoOqtQe+jDV7qvyTPwY95Q8c
7bLIyUnOAst0VITH3Lol4hzqnmIMxAXmMdijNC3QE4GSwTWk8eCdDNVBqGulJF/Y
0pr55qW6HZKJ8Uq/KZXyLgqWYu8VUluMDaTsLz7NW04L+BWP7QIDAQABo1EwTzAJ
BgNVHRMEAjAAMA4GA1UdDwEB/wQEAwIE8DATBgNVHSUEDDAKBggrBgEFBQcDAjAd
BgNVHQ4EFgQUCLnCe7hh+qVWXLYj5uCG5yn5ZPEwDQYJKoZIhvcNAQELBQADggIB
ABE/KWxkXizMN4Di5DnJeGUpi5ykDyCxKjT5P6CiXo1yRsKudzdm7V4kCVnK7l07
1zCaliabwnxdK46rUojKlCW2YYTkdalvNxkePiNYaKft9xRms+wNSFkp1UVWby06
6lZK5ZIgmWWo4FVjpH/l/9YBboNxMbNBkAliJ0wmK7YlUsfVJNJCp6+yIKUAWWSB
aYthIVidJFsJD/RYNf4cOd5Vz/KPepVzc5H4EUdQnjmlrm01nzBLHRWL41XgSogH
T9a7FiyzjC/2lb6RGafP7T69sADWKk2iSY17esZQAqpunvh4U1m2NgqSf5R8/6Te
t8ear03ucJMpXqjOolwdfPdLa8Xr/X008QsktZDthQedpVTzMmZnjz9LHVtzXeKz
ZBKL9iyqxNn284ggzu8T8NoB/YcGY5q7c83cigXbK2BOXEGNJE0ehDVc+cKjQecM
B9DO/Wgy8xH9KWDcAYm5PduUEyu97LcQdCvAMLwiJpqfHgZSGQ/RIg2Q1IayR21m
Dt1uIcpvCujwxKg4v1a7tZeWYJd7p79jSx95o3H7pbk579kgNWp0hMyDYxVwWuTt
XLRfN4qZmQnakZB+maqOePdL+ZhYq4aJh1eQnjjRelRFldieOjwuLmysPfLaWmqA
D51h781UXvKVlbCFn4s7i2nZ0yt0NNSGwsopJRUNRu5E
-----END CERTIFICATE-----
