Certificate:
    Data:
        Version: 3 (0x2)
        Serial Number: 6 (0x6)
    Signature Algorithm: sha256WithRSAEncryption
        Issuer: C=NL, ST=Gelderland, L=Arnhem, O=OSGP, OU=OSGP, CN=OSGP/emailAddress=address@OSGP.com
        Validity
            Not Before: Dec 12 16:12:39 2016 GMT
            Not After : Dec 12 16:12:39 2019 GMT
        Subject: CN=ZownStream
        Subject Public Key Info:
            Public Key Algorithm: rsaEncryption
                Public-Key: (2048 bit)
                Modulus:
                    00:d2:98:16:3a:0e:54:9a:89:6f:72:62:bb:98:55:
                    9f:88:08:12:9b:1b:92:48:7a:50:59:45:cb:38:cd:
                    27:c9:95:fe:27:94:0f:a0:13:74:99:2d:59:4a:8a:
                    52:af:84:27:13:3c:3d:d4:c7:05:7b:a0:df:dd:8d:
                    1b:de:0f:f3:74:89:ca:ac:bc:6e:43:42:ae:22:01:
                    89:c6:0f:58:65:d9:6c:84:ca:89:36:55:9f:32:91:
                    d2:e2:c7:38:66:17:4f:21:45:fa:a1:31:c9:a9:3a:
                    cc:40:4e:6c:e9:7f:7a:9e:8d:a9:ce:f5:47:9e:1e:
                    f6:a5:07:86:a7:41:0d:c7:09:9c:d6:76:71:22:9f:
                    8a:5a:87:aa:92:e7:32:5c:14:36:e6:21:4f:5c:a6:
                    a0:92:f5:79:b4:fc:f7:2b:34:a7:5b:a7:46:40:57:
                    61:40:b7:2b:75:be:e6:83:0d:46:f3:4c:7d:0a:c6:
                    5c:ba:ea:ca:a2:39:76:4b:19:60:fd:15:ba:4c:d0:
                    85:85:9d:9d:58:bf:11:8b:bd:82:df:15:dd:bc:d6:
                    f9:e3:97:3c:42:bd:9d:d8:b4:7d:8c:3d:c4:a5:94:
                    8e:6f:04:1e:0c:ca:eb:a7:82:85:7c:5e:1e:d2:03:
                    3d:8b:4c:57:b0:58:6a:95:00:c7:a4:52:bd:4c:76:
                    f9:71
                Exponent: 65537 (0x10001)
        X509v3 extensions:
            X509v3 Basic Constraints: 
                CA:FALSE
            X509v3 Key Usage: critical
                Digital Signature, Non Repudiation, Key Encipherment, Data Encipherment
            X509v3 Extended Key Usage: 
                TLS Web Client Authentication
            X509v3 Subject Key Identifier: 
                3C:FB:DC:2A:B0:F2:51:F6:BE:7D:A5:C6:E7:F7:92:36:FC:1E:58:04
    Signature Algorithm: sha256WithRSAEncryption
         e0:85:8a:27:b8:d3:d9:4e:fc:7f:88:e2:ff:d9:6d:10:67:9b:
         e1:a3:51:29:95:93:cb:61:f0:67:4f:ef:05:be:a0:a5:2c:d4:
         24:cf:c2:da:67:cf:2f:1e:51:c2:1d:db:6a:73:f8:47:34:a8:
         7b:75:ea:13:41:ec:23:fd:15:da:31:5e:50:9d:85:fa:3f:02:
         01:41:44:d6:0e:29:ea:9a:85:24:ae:66:6c:a7:d4:d1:c5:88:
         6e:bb:c9:aa:6f:62:71:bb:5b:ef:f8:45:de:f6:60:6b:0f:c0:
         a2:ea:d9:b2:58:42:9f:7f:25:fb:b2:6c:37:7a:f6:c8:30:6a:
         91:41:d7:42:54:cc:18:54:44:e6:bd:bd:ed:d0:8c:de:f5:68:
         d9:f0:d3:71:5a:13:75:fc:f1:d8:6d:e0:20:8e:68:6d:97:02:
         10:65:0d:43:83:be:55:08:3e:11:c0:d4:c3:65:18:97:fc:2f:
         ac:47:c3:ba:39:cd:64:26:3d:f3:0c:4b:18:a3:e6:63:01:25:
         f7:1d:68:6c:c2:2d:bc:9f:80:ba:2b:23:c3:9e:83:b0:b0:48:
         3f:5d:93:e1:cf:05:8d:94:29:2b:47:82:38:53:2a:90:44:59:
         95:a0:15:a1:88:4f:56:d7:18:20:ff:24:9b:0a:00:21:e5:1b:
         83:17:4e:a7:0e:d1:d1:ed:2d:0b:a5:2b:a3:4e:47:a1:f5:40:
         b8:f4:8d:2b:a0:38:fc:2c:42:e1:3b:63:23:36:f2:ad:d2:73:
         b0:15:93:00:73:d3:fb:4d:3f:57:2e:eb:4d:27:af:e2:95:93:
         da:e6:1c:2d:4f:a5:20:c3:5c:16:0b:39:4a:b1:3b:d1:99:49:
         f9:22:43:48:6c:41:1d:3b:20:18:b6:3a:a0:49:4a:b5:ca:8b:
         0e:0c:c3:1e:3c:d6:ef:99:65:b2:f9:e0:09:4c:12:9d:dd:26:
         89:2d:8f:a3:c5:e9:03:ee:eb:fc:34:eb:d7:46:d6:2f:24:5d:
         73:d8:92:09:c6:37:d0:0e:87:09:05:ca:87:b5:2b:6b:b2:b8:
         2e:d3:88:93:f5:ac:af:a2:de:9a:59:4b:cb:ce:6f:18:0e:76:
         ed:1f:ad:e1:86:6d:cd:32:34:18:03:f3:14:e0:c6:f2:58:e7:
         44:ba:2c:6b:17:92:33:d0:04:88:70:f1:a8:74:50:fb:8d:7e:
         da:81:a9:7b:8c:04:e3:97:f2:a2:83:08:ec:0f:51:c1:71:29:
         8b:10:c2:e6:15:e6:46:25:66:b4:5a:98:a3:bd:b1:a6:8c:09:
         e0:a3:f6:fb:2f:d6:6f:7f:2c:cc:ae:1e:40:19:e7:9e:84:98:
         56:80:7d:00:6b:fa:1b:87
-----BEGIN CERTIFICATE-----
MIIEYzCCAkugAwIBAgIBBjANBgkqhkiG9w0BAQsFADCBgTELMAkGA1UEBhMCTkwx
EzARBgNVBAgTCkdlbGRlcmxhbmQxDzANBgNVBAcTBkFybmhlbTENMAsGA1UEChME
T1NHUDENMAsGA1UECxMET1NHUDENMAsGA1UEAxMET1NHUDEfMB0GCSqGSIb3DQEJ
ARYQYWRkcmVzc0BPU0dQLmNvbTAeFw0xNjEyMTIxNjEyMzlaFw0xOTEyMTIxNjEy
MzlaMBUxEzARBgNVBAMMClpvd25TdHJlYW0wggEiMA0GCSqGSIb3DQEBAQUAA4IB
DwAwggEKAoIBAQDSmBY6DlSaiW9yYruYVZ+ICBKbG5JIelBZRcs4zSfJlf4nlA+g
E3SZLVlKilKvhCcTPD3UxwV7oN/djRveD/N0icqsvG5DQq4iAYnGD1hl2WyEyok2
VZ8ykdLixzhmF08hRfqhMcmpOsxATmzpf3qejanO9UeeHvalB4anQQ3HCZzWdnEi
n4pah6qS5zJcFDbmIU9cpqCS9Xm0/PcrNKdbp0ZAV2FAtyt1vuaDDUbzTH0Kxly6
6sqiOXZLGWD9FbpM0IWFnZ1YvxGLvYLfFd281vnjlzxCvZ3YtH2MPcSllI5vBB4M
yuungoV8Xh7SAz2LTFewWGqVAMekUr1MdvlxAgMBAAGjUTBPMAkGA1UdEwQCMAAw
DgYDVR0PAQH/BAQDAgTwMBMGA1UdJQQMMAoGCCsGAQUFBwMCMB0GA1UdDgQWBBQ8
+9wqsPJR9r59pcbn95I2/B5YBDANBgkqhkiG9w0BAQsFAAOCAgEA4IWKJ7jT2U78
f4ji/9ltEGeb4aNRKZWTy2HwZ0/vBb6gpSzUJM/C2mfPLx5Rwh3banP4RzSoe3Xq
E0HsI/0V2jFeUJ2F+j8CAUFE1g4p6pqFJK5mbKfU0cWIbrvJqm9icbtb7/hF3vZg
aw/AourZslhCn38l+7JsN3r2yDBqkUHXQlTMGFRE5r297dCM3vVo2fDTcVoTdfzx
2G3gII5obZcCEGUNQ4O+VQg+EcDUw2UYl/wvrEfDujnNZCY98wxLGKPmYwEl9x1o
bMItvJ+Auisjw56DsLBIP12T4c8FjZQpK0eCOFMqkERZlaAVoYhPVtcYIP8kmwoA
IeUbgxdOpw7R0e0tC6Uro05HofVAuPSNK6A4/CxC4TtjIzbyrdJzsBWTAHPT+00/
Vy7rTSev4pWT2uYcLU+lIMNcFgs5SrE70ZlJ+SJDSGxBHTsgGLY6oElKtcqLDgzD
HjzW75llsvngCUwSnd0miS2Po8XpA+7r/DTr10bWLyRdc9iSCcY30A6HCQXKh7Ur
a7K4LtOIk/Wsr6LemllLy85vGA527R+t4YZtzTI0GAPzFODG8ljnRLosaxeSM9AE
iHDxqHRQ+41+2oGpe4wE45fyooMI7A9RwXEpixDC5hXmRiVmtFqYo72xpowJ4KP2
+y/Wb38szK4eQBnnnoSYVoB9AGv6G4c=
-----END CERTIFICATE-----
