Certificate:
    Data:
        Version: 3 (0x2)
        Serial Number: 5 (0x5)
    Signature Algorithm: sha256WithRSAEncryption
        Issuer: C=NL, ST=Gelderland, L=Arnhem, O=OSGP, OU=OSGP, CN=OSGP/emailAddress=address@OSGP.com
        Validity
            Not Before: Dec  7 14:00:04 2016 GMT
            Not After : Dec  7 14:00:04 2019 GMT
        Subject: CN=LianderNetManagement
        Subject Public Key Info:
            Public Key Algorithm: rsaEncryption
                Public-Key: (2048 bit)
                Modulus:
                    00:ed:5b:37:17:0d:a2:4c:f2:54:01:f2:8d:29:03:
                    37:7a:22:c5:af:e6:90:72:ca:e5:51:e6:3e:01:e6:
                    05:25:d0:bf:ce:8c:71:a5:e8:d1:08:78:c8:b8:b1:
                    15:96:40:3d:60:19:d5:49:b4:75:32:a3:c9:70:de:
                    4e:7e:88:2f:1e:cc:cc:b8:74:17:97:a6:5a:e9:aa:
                    6a:d0:3e:ca:d6:3a:10:c3:f6:99:03:44:f8:48:31:
                    f2:c9:21:c2:27:a3:87:63:57:ca:94:12:ae:3c:36:
                    2f:e6:f3:6c:3a:57:8c:bb:44:92:1e:40:ef:a7:c2:
                    40:7c:a1:c5:0b:45:98:46:79:1b:56:f3:2a:5b:a0:
                    1e:c9:22:21:ae:75:89:0b:a8:9b:06:d6:d9:2d:cd:
                    05:12:dc:e1:02:f2:94:91:32:20:2f:18:98:59:51:
                    24:54:be:d4:60:18:34:77:82:0e:aa:2d:dd:ef:64:
                    13:cd:8a:8d:c9:7c:9b:f3:99:53:a6:bd:6f:c8:e5:
                    2a:6d:30:dd:5c:bf:8f:3c:b6:ba:9e:72:bb:72:a4:
                    28:ee:37:97:ec:c5:9d:9f:e9:63:38:59:c1:84:e3:
                    4d:89:bc:84:eb:70:dc:4d:e8:4b:7d:80:66:0c:f8:
                    de:04:f5:87:20:db:e6:90:9b:29:8e:a5:8d:9d:a8:
                    b3:65
                Exponent: 65537 (0x10001)
        X509v3 extensions:
            X509v3 Basic Constraints: 
                CA:FALSE
            X509v3 Key Usage: critical
                Digital Signature, Non Repudiation, Key Encipherment, Data Encipherment
            X509v3 Extended Key Usage: 
                TLS Web Client Authentication
            X509v3 Subject Key Identifier: 
                DA:9D:E2:BC:E1:5C:93:C9:61:01:D2:7F:A5:1A:F7:9E:E3:76:CC:ED
    Signature Algorithm: sha256WithRSAEncryption
         25:ee:a3:0e:5a:a9:33:ce:ed:7d:76:87:5c:83:c0:0b:3e:71:
         36:83:d8:07:f8:ae:5a:85:fa:bd:92:c5:05:57:12:79:71:aa:
         87:78:55:00:c7:07:e1:06:9d:65:e8:05:26:d9:1f:dc:74:9c:
         c8:37:82:bb:ad:73:b5:7d:39:39:a1:ff:2e:44:91:e3:59:54:
         2d:1a:a3:8c:7b:e9:19:bd:8b:c0:2c:51:ef:fe:7a:d4:24:86:
         7f:97:a1:0a:63:3d:5c:eb:55:9c:5e:af:92:73:ac:32:f3:52:
         82:58:62:96:69:06:33:02:3f:9c:26:b1:71:3a:1d:33:84:a8:
         6d:ce:9a:ae:1a:2f:61:c3:23:bf:ad:d9:87:7a:47:2a:01:a7:
         9e:b7:73:f8:f7:be:19:5c:41:38:a9:a3:f9:21:ea:af:33:0a:
         62:3b:f3:c8:b5:0b:dc:58:2d:27:24:af:fd:a4:ed:b2:34:da:
         3c:4c:6e:ff:90:f2:42:d1:ed:16:fa:6e:e2:b7:4b:a5:b8:53:
         b6:7b:b5:1a:76:b0:34:69:6a:ff:7d:3b:0b:d8:dc:1d:f1:d1:
         64:c7:31:56:22:5c:66:6a:85:e3:3a:bb:be:9d:ce:0f:62:4a:
         c2:bb:3f:8f:f7:e9:09:22:b4:76:96:b6:5a:30:a3:21:40:f9:
         ea:c8:38:56:ca:c8:69:a9:d4:fe:f8:61:98:7c:a2:27:ca:79:
         61:f4:b3:83:6c:08:d7:9b:5d:39:78:91:8c:3d:00:f2:81:96:
         f8:c4:44:52:44:44:da:94:55:4d:0f:01:c5:09:a2:c2:88:a0:
         c8:80:02:08:a2:4c:3f:d5:e8:2f:52:e6:af:76:44:4b:83:06:
         c4:9e:09:e4:d4:4e:a9:03:41:4c:f8:72:96:e8:b2:0d:69:6c:
         d4:22:30:8f:ff:0b:2d:62:a0:5c:31:ea:64:fa:f4:63:22:c0:
         43:ba:7c:71:f4:45:8c:39:01:c0:b7:71:11:64:c1:b7:99:02:
         68:ff:d4:84:ce:3a:e1:ae:54:dc:4b:aa:43:d1:f3:cb:18:21:
         6d:bd:6b:b5:c5:b6:2d:3f:66:bd:f6:d7:93:01:f4:61:41:52:
         08:eb:83:a9:33:50:ce:36:38:bb:6f:09:34:09:40:55:02:5f:
         4b:e8:37:f4:86:62:88:fd:82:83:57:58:9f:4b:9f:cd:2a:50:
         cc:ef:a5:95:9e:b7:76:f4:2a:ec:d1:d3:20:a6:6f:55:3f:0c:
         b4:01:7f:11:8d:b7:c2:e5:d4:46:52:1a:3f:a4:9b:b1:1a:a2:
         67:5c:c8:26:ba:c5:40:58:e7:db:30:60:3c:6a:e4:85:a3:e7:
         8b:1c:f0:a1:df:57:82:1f
-----BEGIN CERTIFICATE-----
MIIEbTCCAlWgAwIBAgIBBTANBgkqhkiG9w0BAQsFADCBgTELMAkGA1UEBhMCTkwx
EzARBgNVBAgTCkdlbGRlcmxhbmQxDzANBgNVBAcTBkFybmhlbTENMAsGA1UEChME
T1NHUDENMAsGA1UECxMET1NHUDENMAsGA1UEAxMET1NHUDEfMB0GCSqGSIb3DQEJ
ARYQYWRkcmVzc0BPU0dQLmNvbTAeFw0xNjEyMDcxNDAwMDRaFw0xOTEyMDcxNDAw
MDRaMB8xHTAbBgNVBAMMFExpYW5kZXJOZXRNYW5hZ2VtZW50MIIBIjANBgkqhkiG
9w0BAQEFAAOCAQ8AMIIBCgKCAQEA7Vs3Fw2iTPJUAfKNKQM3eiLFr+aQcsrlUeY+
AeYFJdC/zoxxpejRCHjIuLEVlkA9YBnVSbR1MqPJcN5OfogvHszMuHQXl6Za6apq
0D7K1joQw/aZA0T4SDHyySHCJ6OHY1fKlBKuPDYv5vNsOleMu0SSHkDvp8JAfKHF
C0WYRnkbVvMqW6AeySIhrnWJC6ibBtbZLc0FEtzhAvKUkTIgLxiYWVEkVL7UYBg0
d4IOqi3d72QTzYqNyXyb85lTpr1vyOUqbTDdXL+PPLa6nnK7cqQo7jeX7MWdn+lj
OFnBhONNibyE63DcTehLfYBmDPjeBPWHINvmkJspjqWNnaizZQIDAQABo1EwTzAJ
BgNVHRMEAjAAMA4GA1UdDwEB/wQEAwIE8DATBgNVHSUEDDAKBggrBgEFBQcDAjAd
BgNVHQ4EFgQU2p3ivOFck8lhAdJ/pRr3nuN2zO0wDQYJKoZIhvcNAQELBQADggIB
ACXuow5aqTPO7X12h1yDwAs+cTaD2Af4rlqF+r2SxQVXEnlxqod4VQDHB+EGnWXo
BSbZH9x0nMg3grutc7V9OTmh/y5EkeNZVC0ao4x76Rm9i8AsUe/+etQkhn+XoQpj
PVzrVZxer5JzrDLzUoJYYpZpBjMCP5wmsXE6HTOEqG3Omq4aL2HDI7+t2Yd6RyoB
p563c/j3vhlcQTipo/kh6q8zCmI788i1C9xYLSckr/2k7bI02jxMbv+Q8kLR7Rb6
buK3S6W4U7Z7tRp2sDRpav99OwvY3B3x0WTHMVYiXGZqheM6u76dzg9iSsK7P4/3
6QkitHaWtlowoyFA+erIOFbKyGmp1P74YZh8oifKeWH0s4NsCNebXTl4kYw9APKB
lvjERFJERNqUVU0PAcUJosKIoMiAAgiiTD/V6C9S5q92REuDBsSeCeTUTqkDQUz4
cpbosg1pbNQiMI//Cy1ioFwx6mT69GMiwEO6fHH0RYw5AcC3cRFkwbeZAmj/1ITO
OuGuVNxLqkPR88sYIW29a7XFti0/Zr3215MB9GFBUgjrg6kzUM42OLtvCTQJQFUC
X0voN/SGYoj9goNXWJ9Ln80qUMzvpZWet3b0KuzR0yCmb1U/DLQBfxGNt8Ll1EZS
Gj+km7EaomdcyCa6xUBY59swYDxq5IWj54sc8KHfV4If
-----END CERTIFICATE-----
